(iML1050.Classifiers.NeuralNetwork
NeuralNetwork
p1
(dp2
S'aAlpha'
p3
F0.050000000000000003
sS'V'
(lp4
(lp5
F69.849523242855369
aF71.706479471505645
aF0.26638540619146112
aF0.24042948400798173
aF71.631710220815677
aF0.21722219852236169
aF71.576188061930779
aF0.16171771827255058
aF66.278855354182681
aF0.16435581296102039
aF0.10713993300538338
aF71.556717777690338
aF16.910349564662852
aF65.744660049250996
aF0.18269695991053211
aF69.288279982395423
aF0.15120174083246932
aF0.21044262517801535
aF0.17027419640620578
aF0.33515417631473648
aF62.143500590548143
aF72.135756989377313
aasS'lastDeltaW'
p6
(lp7
(lp8
F-9.3112936109883154e-313
aF-8.3477452983423521e-313
aF-7.6845223700077325e-313
aF-7.4922192878335275e-313
aF-7.1199430668489935e-313
aF-6.9401774116477339e-313
aF-6.7611827324976306e-313
aF-6.8570298964644524e-313
aF-6.5631849619434008e-313
aF-6.6666861985042061e-313
aF-6.6260897761040844e-313
aF-4.4992308445664317e-313
aF-3.7459457746689761e-313
aF-3.7184151741991307e-313
aF-3.5261482636578023e-313
aF-3.5257226136534557e-313
aF-3.4459451487480451e-313
aF-3.6059315168880998e-313
aF-3.4821194345593956e-313
aF-3.6022645248073689e-313
aF-7.697852232575535e-313
aF-6.7861719999951645e-313
aF-5.5328417042852729e-313
aF-5.3203400167438009e-313
aF-4.9511489158100397e-313
aF-4.4026617228268467e-313
aF-4.3615674466313575e-313
aF-4.2804683116080068e-313
aF-4.3038862308878057e-313
aF-4.1387119525696676e-313
aF-6.3981942019873019e-313
aF-3.3164235068610024e-313
aF-3.0198837215609337e-313
aF-2.9738298925264952e-313
aF-3.0572539899072832e-313
aF-2.7318009302025337e-313
aF-2.7529534591889556e-313
aF-2.79299319910082e-313
aF-2.7679708244619845e-313
aF-3.0656258593025673e-313
aF-7.1541834998321063e-313
aF-4.761001565861491e-313
aF-3.8809725834787813e-313
aF-3.5010826759130992e-313
aF-4.2676245560789961e-313
aF-3.3442693505109872e-313
aF-3.1764957762788793e-313
aF-3.2387704621286575e-313
aF-3.301035003624969e-313
aF-3.4421871266036715e-313
aF-5.2735940000597156e-313
aF-3.03955055690963e-313
aF-2.8748967259594374e-313
aF-2.8907711025412121e-313
aF-3.0479107243600923e-313
aF-2.7464917578065394e-313
aF-2.7591060454356574e-313
aF-2.8270271307761804e-313
aF-2.9478854147146451e-313
aF-2.8863173874996541e-313
aF-5.0002106736103484e-313
aF-3.4055730684649604e-313
aF-3.3460436584751122e-313
aF-3.4889858982834425e-313
aF-3.2843674001033922e-313
aF-2.8307359053462947e-313
aF-2.6451179058126748e-313
aF-2.7051466112814452e-313
aF-2.9448608533770273e-313
aF-2.978347297866898e-313
aF-5.2639786208423454e-313
aF-3.2367559332222973e-313
aF-3.080950529257158e-313
aF-2.9473018727428041e-313
aF-2.7354007722403283e-313
aF-2.6306656183889837e-313
aF-2.6860147660241664e-313
aF-2.8098498291246951e-313
aF-2.8077058571436069e-313
aF-2.9624966040254173e-313
aF-4.7131688680441376e-313
aF-2.8665138262521705e-313
aF-2.7661674583233388e-313
aF-2.846005175522391e-313
aF-2.6640604281282676e-313
aF-2.6960416642273136e-313
aF-2.7396752135366236e-313
aF-2.7811388823588169e-313
aF-2.846294274626002e-313
aF-2.9080900971310484e-313
aF-4.7628579335345797e-313
aF-2.9483453193771622e-313
aF-2.7117171713827737e-313
aF-2.958075801512703e-313
aF-2.7045335932049536e-313
aF-2.6708150558938204e-313
aF-2.9255547636663212e-313
aF-2.7870089526796056e-313
aF-2.928685301047434e-313
aF-3.101227872137173e-313
aF-2.9724244032330135e-314
aa(lp9
F0
aF0
aF0
aF0
aF0
aF0
aF0
aF0
aF0
aF0
aF0
aF0
aF0
aF0
aF0
aF0
aF0
aF0
aF0
aF0
aF0
aF0
aF0
aF0
aF0
aF0
aF0
aF0
aF0
aF0
aF0
aF0
aF0
aF0
aF0
aF0
aF0
aF0
aF0
aF0
aF0
aF0
aF0
aF0
aF0
aF0
aF0
aF0
aF0
aF0
aF0
aF0
aF0
aF0
aF0
aF0
aF0
aF0
aF0
aF0
aF0
aF0
aF0
aF0
aF0
aF0
aF0
aF0
aF0
aF0
aF0
aF0
aF0
aF0
aF0
aF0
aF0
aF0
aF0
aF0
aF0
aF0
aF0
aF0
aF0
aF0
aF0
aF0
aF0
aF0
aF0
aF0
aF0
aF0
aF0
aF0
aF0
aF0
aF0
aF0
aF0
aa(lp10
F-1.6034065564836185e-317
aF-1.4374830084438151e-317
aF-1.3232762759480901e-317
aF-1.2901615260355806e-317
aF-1.2260555203563871e-317
aF-1.1950998373162038e-317
aF-1.1642770579347518e-317
aF-1.1807818148997245e-317
aF-1.1301815877152474e-317
aF-1.1480045118233245e-317
aF-1.1410139770003167e-317
aF-7.7476854846030493e-318
aF-6.4505260127597733e-318
aF-6.4031154733848473e-318
aF-6.0720322027937111e-318
aF-6.0713009856378661e-318
aF-5.9339260328117075e-318
aF-6.209421977589245e-318
aF-5.9962178294393719e-318
aF-6.2031078186353938e-318
aF-1.3255717049386685e-317
aF-1.1685798756443832e-317
aF-9.5275619144025984e-318
aF-9.1616371344667375e-318
aF-8.5258882833675967e-318
aF-7.5813928695258025e-318
aF-7.5106278470719608e-318
aF-7.370975251618474e-318
aF-7.4113008896320366e-318
aF-7.1268672973212309e-318
aF-1.1017703427511465e-317
aF-5.7108850376531352e-318
aF-5.2002434893939148e-318
aF-5.1209410125799363e-318
aF-5.2645955397647372e-318
aF-4.7041669963740944e-318
aF-4.7405895157855111e-318
aF-4.8095413173191154e-318
aF-4.7664489116888419e-318
aF-5.2790123753103847e-318
aF-1.2319516997738566e-317
aF-8.198451217242769e-318
aF-6.6830431870055807e-318
aF-6.0288706279730198e-318
aF-7.3488559326541614e-318
aF-5.7588390492384865e-318
aF-5.4699292221763592e-318
aF-5.5771661706062018e-318
aF-5.6843882970666691e-318
aF-5.9274537728511872e-318
aF-9.0811390187898232e-318
aF-5.2341116894163322e-318
aF-4.9505772965809577e-318
aF-4.9779139487653538e-318
aF-5.2485087623361462e-318
aF-4.7294631574411662e-318
aF-4.7511872238888058e-318
aF-4.8681473842288041e-318
aF-5.0762626562265124e-318
aF-4.9702460499418977e-318
aF-8.6103735088064499e-318
aF-5.8644011151289273e-318
aF-5.7618923749297854e-318
aF-6.0080408203443529e-318
aF-5.6556880236997511e-318
aF-4.874530712373073e-318
aF-4.554899883452537e-318
aF-4.6582682978754426e-318
aF-5.0710552043193456e-318
aF-5.1287176058454775e-318
aF-9.064582878997683e-318
aF-5.5736978297723962e-318
aF-5.3054004214547657e-318
aF-5.0752597029654547e-318
aF-4.7103625795729436e-318
aF-4.530008856215055e-318
aF-4.6253240006107482e-318
aF-4.8385676740122887e-318
aF-4.8348720629813961e-318
aF-5.1014254195692071e-318
aF-8.1160855334245748e-318
aF-4.9361406984094764e-318
aF-4.7633461794329589e-318
aF-4.9008248860447441e-318
aF-4.5875180973909761e-318
aF-4.6425866542764414e-318
aF-4.7177241576959782e-318
aF-4.7891265248329551e-318
aF-4.9013238923470438e-318
aF-5.0077357511483315e-318
aF-8.2016478219713618e-318
aF-5.0770581019163168e-318
aF-4.6695824011652071e-318
aF-5.0938118679667935e-318
aF-4.6572109973933423e-318
aF-4.599148402694079e-318
aF-5.0378095270106882e-318
aF-4.799235107946867e-318
aF-5.0431997832068162e-318
aF-5.340320981302825e-318
aF-5.1185200909153142e-319
aa(lp11
F-3.1116679839712624e-314
aF-2.7896673513940855e-314
aF-2.5680300965366086e-314
aF-2.5037658421251179e-314
aF-2.3793577795243124e-314
aF-2.3192833090018005e-314
aF-2.2594664848204133e-314
aF-2.2914968945320914e-314
aF-2.1932991671094485e-314
aF-2.2278874312498218e-314
aF-2.2143208322859711e-314
aF-1.5035625721910282e-314
aF-1.2518281588263739e-314
aF-1.2426279238014571e-314
aF-1.1783757572000575e-314
aF-1.178233512736226e-314
aF-1.1515733090486364e-314
aF-1.2050378951546506e-314
aF-1.1636621092473426e-314
aF-1.2038124517816294e-314
aF-2.5724846986236272e-314
aF-2.2678174516321991e-314
aF-1.8489768566548011e-314
aF-1.7779625889520766e-314
aF-1.6545855183317959e-314
aF-1.4712908968847135e-314
aF-1.457557923784954e-314
aF-1.4304560417141487e-314
aF-1.4382818918423833e-314
aF-1.3830835987530422e-314
aF-2.1381622023887256e-314
aF-1.1082894900355228e-314
aF-1.0091911911171504e-314
aF-9.938008244137206e-315
aF-1.0216796672022568e-314
aF-9.1291906873907316e-315
aF-9.1998786603071044e-315
aF-9.3336843198660427e-315
aF-9.2500640156281121e-315
aF-1.0244773964307957e-314
aF-2.3908003206134354e-314
aF-1.5910416709198193e-314
aF-1.2969517063697555e-314
aF-1.1699992857315022e-314
aF-1.4261638879174171e-314
aF-1.1175950736899711e-314
aF-1.061528142049788e-314
aF-1.082339229531134e-314
aF-1.1031469272280839e-314
aF-1.1503174450656695e-314
aF-1.7623409051598548e-314
aF-1.0157634964065597e-314
aF-9.6073912727026149e-315
aF-9.6604406079968093e-315
aF-1.0185573151055118e-314
aF-9.1782848098010827e-315
aF-9.2204395084794883e-315
aF-9.4474196396257883e-315
aF-9.8513064327035378e-315
aF-9.645557087923413e-315
aF-1.6709810813543156e-314
aF-1.1380816810880826e-314
aF-1.1181880157053832e-314
aF-1.1659567586023319e-314
aF-1.09757691166957e-314
aF-9.4598137012481714e-315
aF-8.8395115062455567e-315
aF-9.0401167185716858e-315
aF-9.8411988920681386e-315
aF-9.9531046076908307e-315
aF-1.7591276173165988e-314
aF-1.0816660102473886e-314
aF-1.0295986274599098e-314
aF-9.849356340777433e-315
aF-9.1412207165046024e-315
aF-8.7912145439328011e-315
aF-8.9761815064456032e-315
aF-9.3900161680233289e-315
aF-9.3828513960096587e-315
aF-9.9001344167724436e-315
aF-1.5750568380084599e-314
aF-9.579377123120046e-315
aF-9.2440374868713004e-315
aF-9.5108408752605022e-315
aF-8.9028140327275444e-315
aF-9.0096896116627057e-315
aF-9.1555051375165081e-315
aF-9.294069311292863e-315
aF-9.511806990987006e-315
aF-9.718317592114243e-315
aF-1.5916620355548382e-314
aF-9.8528433523519949e-315
aF-9.0620743545533968e-315
aF-9.8853608855931245e-315
aF-9.0380681198371132e-315
aF-8.9253867903196407e-315
aF-9.7766813889938369e-315
aF-9.3136860395412959e-315
aF-9.787143085765488e-315
aF-1.0363749532052441e-314
aF-9.9333113497871387e-316
aa(lp12
F0
aF0
aF0
aF0
aF0
aF0
aF0
aF0
aF0
aF0
aF0
aF0
aF0
aF0
aF0
aF0
aF0
aF0
aF0
aF0
aF0
aF0
aF0
aF0
aF0
aF0
aF0
aF0
aF0
aF0
aF0
aF0
aF0
aF0
aF0
aF0
aF0
aF0
aF0
aF0
aF0
aF0
aF0
aF0
aF0
aF0
aF0
aF0
aF0
aF0
aF0
aF0
aF0
aF0
aF0
aF0
aF0
aF0
aF0
aF0
aF0
aF0
aF0
aF0
aF0
aF0
aF0
aF0
aF0
aF0
aF0
aF0
aF0
aF0
aF0
aF0
aF0
aF0
aF0
aF0
aF0
aF0
aF0
aF0
aF0
aF0
aF0
aF0
aF0
aF0
aF0
aF0
aF0
aF0
aF0
aF0
aF0
aF0
aF0
aF0
aF0
aa(lp13
F-3.7177952256167922e-315
aF-3.33307152947409e-315
aF-3.0682611673156166e-315
aF-2.9914787662007241e-315
aF-2.8428370366330161e-315
aF-2.7710605580483517e-315
aF-2.6995919070643287e-315
aF-2.7378615798245391e-315
aF-2.6205357417374279e-315
aF-2.6618615168378669e-315
aF-2.6456522555950154e-315
aF-1.7964441504904278e-315
aF-1.4956739515165551e-315
aF-1.4846815887160188e-315
aF-1.4079136291399542e-315
aF-1.4077436754984413e-315
aF-1.3758902850610774e-315
aF-1.4397693318045407e-315
aF-1.3903338841427602e-315
aF-1.4383051830850596e-315
aF-3.0735834894854414e-315
aF-2.709569577604062e-315
aF-2.2091422881597426e-315
aF-2.1242950262375863e-315
aF-1.9768851209007155e-315
aF-1.7578862200698077e-315
aF-1.7414781764550085e-315
aF-1.7090970745013215e-315
aF-1.7184473360180575e-315
aF-1.6524968696478402e-315
aF-2.5546585551838017e-315
aF-1.3241751345182255e-315
aF-1.2057733054456319e-315
aF-1.1873850220190186e-315
aF-1.2206944337959896e-315
aF-1.0907481680295402e-315
aF-1.0991939089838394e-315
aF-1.1151808999739399e-315
aF-1.1051900131781803e-315
aF-1.2240371386767142e-315
aF-2.8565084901607524e-315
aF-1.9009634562507254e-315
aF-1.5495871951770982e-315
aF-1.3979054895718419e-315
aF-1.7039688460204654e-315
aF-1.3352933704233528e-315
aF-1.2683050648168249e-315
aF-1.2931699806849242e-315
aF-1.3180308452147276e-315
aF-1.3743897879320317e-315
aF-2.1056303674293459e-315
aF-1.2136258415415954e-315
aF-1.1478831791820188e-315
aF-1.1542214732426693e-315
aF-1.2169638725613103e-315
aF-1.0966138932406e-315
aF-1.1016505021880913e-315
aF-1.1287699038266981e-315
aF-1.1770259624446346e-315
aF-1.1524432025262188e-315
aF-1.996474403802522e-315
aF-1.3597705979198169e-315
aF-1.3360018111529246e-315
aF-1.3930755136994108e-315
aF-1.311375835312467e-315
aF-1.1302507322023829e-315
aF-1.0561375405017736e-315
aF-1.0801056827567629e-315
aF-1.1758183227271613e-315
aF-1.1891887222942606e-315
aF-2.1017911611591461e-315
aF-1.2923656220508688e-315
aF-1.2301559440741997e-315
aF-1.1767929660267123e-315
aF-1.092185508747078e-315
aF-1.0503670563252626e-315
aF-1.0724667608834353e-315
aF-1.1219113833442591e-315
aF-1.1210553405029923e-315
aF-1.182859889590728e-315
aF-1.8818649089923072e-315
aF-1.1445360721763898e-315
aF-1.1044699717872441e-315
aF-1.1363474182809041e-315
aF-1.0637008752719439e-315
aF-1.0764702785654726e-315
aF-1.0938921992327591e-315
aF-1.1104477313241549e-315
aF-1.1364628517783984e-315
aF-1.1611365642415572e-315
aF-1.9017046634139293e-315
aF-1.1772095918232244e-315
aF-1.0827291663955234e-315
aF-1.1810947610204568e-315
aF-1.0798609226358131e-315
aF-1.0663978462348669e-315
aF-1.1681098215889299e-315
aF-1.1127915194601483e-315
aF-1.1693597780289695e-315
aF-1.2382522422785083e-315
aF-1.1868238424958463e-316
aa(lp14
F-9.6061921358549065e-315
aF-8.6121272244603021e-315
aF-7.9278993280952873e-315
aF-7.7295058006327666e-315
aF-7.345439196977064e-315
aF-7.1599801747249427e-315
aF-6.9753165438154049e-315
aF-7.0741992917738097e-315
aF-6.7710479730637438e-315
aF-6.8778272042573097e-315
aF-6.8359450519517759e-315
aF-4.6417262488355218e-315
aF-3.8645838434040176e-315
aF-3.8361813186985658e-315
aF-3.637825112954932e-315
aF-3.6373859775275953e-315
aF-3.5550818789921552e-315
aF-3.7201351847440303e-315
aF-3.5924018439459603e-315
aF-3.7163520549246334e-315
aF-7.9416513587892038e-315
aF-7.0010972498833226e-315
aF-5.7080726578960001e-315
aF-5.4888408149943911e-315
aF-5.1079570415170752e-315
aF-4.5420986771533855e-315
aF-4.4997029040837481e-315
aF-4.4160352732976024e-315
aF-4.4401948610496987e-315
aF-4.2697893421564255e-315
aF-6.6008317850666134e-315
aF-3.4214581492259851e-315
aF-3.1155266341949543e-315
aF-3.0680142333058252e-315
aF-3.1540804589300574e-315
aF-2.8183199578015584e-315
aF-2.8401424075412544e-315
aF-2.8814502480587493e-315
aF-2.8556353921733911e-315
aF-3.1627174724584876e-315
aF-7.3807640606244281e-315
aF-4.9117875258560266e-315
aF-4.0038870899799865e-315
aF-3.6119656676450365e-315
aF-4.4027847439374971e-315
aF-3.4501858975834683e-315
aF-3.2770987583468883e-315
aF-3.341345750598779e-315
aF-3.4055822735996343e-315
aF-3.5512048371747969e-315
aF-5.4406143015020759e-315
aF-3.1358163391409005e-315
aF-2.9659477460882452e-315
aF-2.9823248809562406e-315
aF-3.1444412826456028e-315
aF-2.8334760588324218e-315
aF-2.8464898516976659e-315
aF-2.9165620705996267e-315
aF-3.0412480639007125e-315
aF-2.9777301149158252e-315
aF-5.1585726390837944e-315
aF-3.5134311717384158e-315
aF-3.4520164009199972e-315
aF-3.5994857719980014e-315
aF-3.3883867930991497e-315
aF-2.9203883076466232e-315
aF-2.7288915907540942e-315
aF-2.7908214694742105e-315
aF-3.0381277132638988e-315
aF-3.0726747100771375e-315
aF-5.4306943921769979e-315
aF-3.3392674189936397e-315
aF-3.1785274940749041e-315
aF-3.0406460399705985e-315
aF-2.8220338097360954e-315
aF-2.7139815838214244e-315
aF-2.7710836951425464e-315
aF-2.8988407461509604e-315
aF-2.8966288735424066e-315
aF-3.0563220067553289e-315
aF-4.8624399131847637e-315
aF-2.9572993542279913e-315
aF-2.8537749089334725e-315
aF-2.9361411708084724e-315
aF-2.7484340411733314e-315
aF-2.7814281550770959e-315
aF-2.8264436272426467e-315
aF-2.8692204929075472e-315
aF-2.9364394283575538e-315
aF-3.0001923895481985e-315
aF-4.9137026824003139e-315
aF-3.0417225349030397e-315
aF-2.7976001242449993e-315
aF-3.0517611929060957e-315
aF-2.7901890358035949e-315
aF-2.7554025950157557e-315
aF-3.0182101780876518e-315
aF-2.875276477858164e-315
aF-3.0214398654518902e-315
aF-3.1994470388468252e-315
aF-3.0665642296857844e-316
aa(lp15
F-8.0827392149438594e-316
aF-7.2463237737434067e-316
aF-6.6706080487654024e-316
aF-6.5036778913787621e-316
aF-6.1805207183175987e-316
aF-6.0244737895709848e-316
aF-5.8690960727416629e-316
aF-5.9522969251275871e-316
aF-5.6972225909421226e-316
aF-5.7870676381333199e-316
aF-5.7518276154386597e-316
aF-3.9055915489229769e-316
aF-3.2516967041899434e-316
aF-3.2277985512743439e-316
aF-3.0608998164627791e-316
aF-3.0605303047662545e-316
aF-2.991278901825012e-316
aF-3.1301562588736092e-316
aF-3.0226802320777441e-316
aF-3.1269730927305832e-316
aF-6.6821791650041336e-316
aF-5.8907882225485812e-316
aF-4.802825285368937e-316
aF-4.6183615781229888e-316
aF-4.2978824384885434e-316
aF-3.821763974265303e-316
aF-3.7860917923502254e-316
aF-3.7156930701662104e-316
aF-3.7360211541315255e-316
aF-3.5926403887210853e-316
aF-5.5540011122959016e-316
aF-2.8788466555028903e-316
aF-2.6214330192974966e-316
aF-2.5814556481576876e-316
aF-2.6538725790983995e-316
aF-2.3713605563039643e-316
aF-2.3897221601857021e-316
aF-2.4244789866787296e-316
aF-2.402758131657788e-316
aF-2.661139840089643e-316
aF-6.2102433617254561e-316
aF-4.1328236041420914e-316
aF-3.3689077510648998e-316
aF-3.0391414124527535e-316
aF-3.7045439353955922e-316
aF-2.9030184219731567e-316
aF-2.7573813081647241e-316
aF-2.8114393031781857e-316
aF-2.865488553229716e-316
aF-2.9880166851786514e-316
aF-4.5777833737512722e-316
aF-2.6385049636238951e-316
aF-2.4955759718400121e-316
aF-2.5093558579550411e-316
aF-2.6457620962693988e-316
aF-2.3841130329084664e-316
aF-2.3950629604106814e-316
aF-2.4540223830702757e-316
aF-2.5589343573839185e-316
aF-2.5054897448697688e-316
aF-4.3404708971600588e-316
aF-2.9562335904013777e-316
aF-2.9045586222175022e-316
aF-3.028640738842302e-316
aF-2.851020087824078e-316
aF-2.4572418136317065e-316
aF-2.2961147042882945e-316
aF-2.348223066856702e-316
aF-2.5563088431353536e-316
aF-2.585376997782165e-316
aF-4.5694366781369948e-316
aF-2.8096906072312952e-316
aF-2.674442508197354e-316
aF-2.5584277918772375e-316
aF-2.374485422700781e-316
aF-2.2835692905959644e-316
aF-2.3316155442373944e-316
aF-2.4391115312853515e-316
aF-2.4372504354040321e-316
aF-2.5716177142045675e-316
aF-4.0913020802327701e-316
aF-2.4882991259752393e-316
aF-2.40119268465894e-316
aF-2.4704964091520771e-316
aF-2.3125579006737954e-316
aF-2.340319449313615e-316
aF-2.3781959051076133e-316
aF-2.4141887356268419e-316
aF-2.4707473945001644e-316
aF-2.5243897320857798e-316
aF-4.1344350486525672e-316
aF-2.5593335624257583e-316
aF-2.3539267088919871e-316
aF-2.5677802075201894e-316
aF-2.347690958156131e-316
aF-2.3184213235389455e-316
aF-2.5395500376152893e-316
aF-2.4192843310717902e-316
aF-2.5422675468871099e-316
aF-2.6920444367420463e-316
aF-2.5802356024518472e-317
aa(lp16
F-2.7471009402701002e-311
aF-2.4628263178352433e-311
aF-2.2671563705507704e-311
aF-2.2104213990232314e-311
aF-2.100589145907218e-311
aF-2.0475530779747061e-311
aF-1.9947444702969479e-311
aF-2.0230221559925215e-311
aF-1.9363294009723568e-311
aF-1.9668652594902756e-311
aF-1.9548881406505002e-311
aF-1.3274032373966454e-311
aF-1.1051623533378943e-311
aF-1.0970400298887382e-311
aF-1.0403157300417991e-311
aF-1.0401901509843298e-311
aF-1.0166534913041288e-311
aF-1.063854097452988e-311
aF-1.0273259519556426e-311
aF-1.062772228711302e-311
aF-2.2710890655667267e-311
aF-2.0021170270102091e-311
aF-1.6323483377438591e-311
aF-1.5696541934131958e-311
aF-1.4607321399446157e-311
aF-1.2989125532655527e-311
aF-1.2867885531548713e-311
aF-1.2628619625627839e-311
aF-1.2697709261056788e-311
aF-1.2210397364156886e-311
aF-1.8876523545022218e-311
aF-9.784408606055128e-312
aF-8.9095304665408378e-312
aF-8.7736583499530592e-312
aF-9.0197835673159465e-312
aF-8.0596029053451221e-312
aF-8.1220089842133348e-312
aF-8.2401377981633345e-312
aF-8.1663145554432382e-312
aF-9.044483003623158e-312
aF-2.1106910640276431e-311
aF-1.4046331717846111e-311
aF-1.1449991675321401e-311
aF-1.0329206566508551e-311
aF-1.2590726831858615e-311
aF-9.8665618990066319e-312
aF-9.371581327338355e-312
aF-9.5553096632207542e-312
aF-9.7390080704294305e-312
aF-1.015544766072897e-311
aF-1.5558627663797144e-311
aF-8.9675533193653514e-312
aF-8.4817768926932839e-312
aF-8.5286108951369593e-312
aF-8.9922182315065231e-312
aF-8.1029450960502842e-312
aF-8.1401608932161547e-312
aF-8.3405477407747092e-312
aF-8.6971146361907559e-312
aF-8.5154711476215894e-312
aF-1.475206777583416e-311
aF-1.004742559889548e-311
aF-9.871796620778189e-312
aF-1.0293517573584978e-311
aF-9.6898338189506773e-312
aF-8.3514896984941098e-312
aF-7.8038629106998629e-312
aF-7.9809649549620612e-312
aF-8.6881913053706302e-312
aF-8.7869860023972455e-312
aF-1.5530259513911569e-311
aF-9.5493662202929053e-312
aF-9.089695212580663e-312
aF-8.6953930186133521e-312
aF-8.0702234805604394e-312
aF-7.7612244825994763e-312
aF-7.9245204775744799e-312
aF-8.2898697324107109e-312
aF-8.2835443949795304e-312
aF-8.7402218708258994e-312
aF-1.3905211423900409e-311
aF-8.4570449137987624e-312
aF-8.1609941037071354e-312
aF-8.3965384621763799e-312
aF-7.8597488306546456e-312
aF-7.9541027274761599e-312
aF-8.082834318810963e-312
aF-8.2051641349588432e-312
aF-8.3973913880908848e-312
aF-8.5797069386197245e-312
aF-1.4051808539442148e-311
aF-8.6984714878982466e-312
aF-8.0003500076820167e-312
aF-8.7271792247393865e-312
aF-7.9791563742520224e-312
aF-7.8796769362912754e-312
aF-8.6312327565421444e-312
aF-8.2224825403655156e-312
aF-8.6404687472312485e-312
aF-9.1495192391028156e-312
aF-8.769511750074422e-313
aa(lp17
F-0
aF-0
aF-0
aF-0
aF-0
aF-0
aF-0
aF-0
aF-0
aF-0
aF-0
aF-0
aF-0
aF-0
aF-0
aF-0
aF-0
aF-0
aF-0
aF-0
aF-0
aF-0
aF-0
aF-0
aF-0
aF-0
aF-0
aF-0
aF-0
aF-0
aF-0
aF-0
aF-0
aF-0
aF-0
aF-0
aF-0
aF-0
aF-0
aF-0
aF-0
aF-0
aF-0
aF-0
aF-0
aF-0
aF-0
aF-0
aF-0
aF-0
aF-0
aF-0
aF-0
aF-0
aF-0
aF-0
aF-0
aF-0
aF-0
aF-0
aF-0
aF-0
aF-0
aF-0
aF-0
aF-0
aF-0
aF-0
aF-0
aF-0
aF-0
aF-0
aF-0
aF-0
aF-0
aF-0
aF-0
aF-0
aF-0
aF-0
aF-0
aF-0
aF-0
aF-0
aF-0
aF-0
aF-0
aF-0
aF-0
aF-0
aF-0
aF-0
aF-0
aF-0
aF-0
aF-0
aF-0
aF-0
aF-0
aF-0
aF-0
aa(lp18
F-1.2114808581686048e-312
aF-1.0861147827896234e-312
aF-9.9982367052378399e-313
aF-9.7480335511103514e-313
aF-9.2636695792273418e-313
aF-9.0297787157786881e-313
aF-8.7968909597395736e-313
aF-8.9215965154710934e-313
aF-8.5392785172000484e-313
aF-8.6739426918553387e-313
aF-8.6211231904154609e-313
aF-5.8538934248969867e-313
aF-4.8738035672568744e-313
aF-4.837983844593055e-313
aF-4.5878277529851005e-313
aF-4.5872739450695838e-313
aF-4.4834764753442743e-313
aF-4.6916327538518627e-313
aF-4.5305423898009486e-313
aF-4.6868616758909183e-313
aF-1.0015580024013398e-312
aF-8.8294041856175896e-313
aF-7.1987116892802545e-313
aF-6.9222283804455759e-313
aF-6.4418784199518884e-313
aF-5.7282485388621064e-313
aF-5.6747812859873623e-313
aF-5.5692642076889627e-313
aF-5.5997329718910915e-313
aF-5.3848267678877347e-313
aF-8.3246110866748041e-313
aF-4.3149574742330944e-313
aF-3.9291332390580437e-313
aF-3.8692131735359176e-313
aF-3.9777552314973173e-313
aF-3.5543122937851986e-313
aF-3.5818335867993747e-313
aF-3.6339287955616536e-313
aF-3.6013724944220853e-313
aF-3.9886477669013209e-313
aF-9.308219381725387e-313
aF-6.1944800623161566e-313
aF-5.0494852728158098e-313
aF-4.5552152277679142e-313
aF-5.552553356723956e-313
aF-4.3511873558681875e-313
aF-4.1328992402071541e-313
aF-4.2139240612357037e-313
aF-4.294935683596964e-313
aF-4.4785869593244235e-313
aF-6.8614077181315593e-313
aF-3.9547215145113631e-313
aF-3.7404924581077017e-313
aF-3.7611464124569788e-313
aF-3.9655988246402048e-313
aF-3.5734263472939115e-313
aF-3.5898386404167372e-313
aF-3.6782099217524374e-313
aF-3.8354571354071009e-313
aF-3.7553517391228868e-313
aF-6.5057120642363877e-313
aF-4.4309488626508637e-313
aF-4.3534958859480901e-313
aF-4.5394762604987937e-313
aF-4.2732496714687509e-313
aF-3.6830353623492725e-313
aF-3.4415300862900042e-313
aF-3.5196326901972751e-313
aF-3.8315219161741872e-313
aF-3.8750907135857992e-313
aF-6.8488972675381294e-313
aF-4.2113029827085071e-313
aF-4.0085865048553526e-313
aF-3.834697896181801e-313
aF-3.5589960035488475e-313
aF-3.4227263944940368e-313
aF-3.4947404836745031e-313
aF-3.6558607476889853e-313
aF-3.6530712523608737e-313
aF-3.8544675724804367e-313
aF-6.132245532689282e-313
aF-3.7295855712824439e-313
aF-3.5990261571049856e-313
aF-3.7029020203251339e-313
aF-3.466175967096608e-313
aF-3.507786356518571e-313
aF-3.5645574261200228e-313
aF-3.6185052911342588e-313
aF-3.7032781635683833e-313
aF-3.7836799414344216e-313
aF-6.1968953592410271e-313
aF-3.8360555116011451e-313
aF-3.5281815643907498e-313
aF-3.8487157211992536e-313
aF-3.5188350999661284e-313
aF-3.4749643294835585e-313
aF-3.806403002392725e-313
aF-3.6261427668280344e-313
aF-3.8104761057131129e-313
aF-4.0349691040248013e-313
aF-3.8673845088646897e-314
aa(lp19
F0
aF0
aF0
aF0
aF0
aF0
aF0
aF0
aF0
aF0
aF0
aF0
aF0
aF0
aF0
aF0
aF0
aF0
aF0
aF0
aF0
aF0
aF0
aF0
aF0
aF0
aF0
aF0
aF0
aF0
aF0
aF0
aF0
aF0
aF0
aF0
aF0
aF0
aF0
aF0
aF0
aF0
aF0
aF0
aF0
aF0
aF0
aF0
aF0
aF0
aF0
aF0
aF0
aF0
aF0
aF0
aF0
aF0
aF0
aF0
aF0
aF0
aF0
aF0
aF0
aF0
aF0
aF0
aF0
aF0
aF0
aF0
aF0
aF0
aF0
aF0
aF0
aF0
aF0
aF0
aF0
aF0
aF0
aF0
aF0
aF0
aF0
aF0
aF0
aF0
aF0
aF0
aF0
aF0
aF0
aF0
aF0
aF0
aF0
aF0
aF0
aa(lp20
F0
aF0
aF0
aF0
aF0
aF0
aF0
aF0
aF0
aF0
aF0
aF0
aF0
aF0
aF0
aF0
aF0
aF0
aF0
aF0
aF0
aF0
aF0
aF0
aF0
aF0
aF0
aF0
aF0
aF0
aF0
aF0
aF0
aF0
aF0
aF0
aF0
aF0
aF0
aF0
aF0
aF0
aF0
aF0
aF0
aF0
aF0
aF0
aF0
aF0
aF0
aF0
aF0
aF0
aF0
aF0
aF0
aF0
aF0
aF0
aF0
aF0
aF0
aF0
aF0
aF0
aF0
aF0
aF0
aF0
aF0
aF0
aF0
aF0
aF0
aF0
aF0
aF0
aF0
aF0
aF0
aF0
aF0
aF0
aF0
aF0
aF0
aF0
aF0
aF0
aF0
aF0
aF0
aF0
aF0
aF0
aF0
aF0
aF0
aF0
aF0
aa(lp21
F0
aF0
aF0
aF0
aF0
aF0
aF0
aF0
aF0
aF0
aF0
aF0
aF0
aF0
aF0
aF0
aF0
aF0
aF0
aF0
aF0
aF0
aF0
aF0
aF0
aF0
aF0
aF0
aF0
aF0
aF0
aF0
aF0
aF0
aF0
aF0
aF0
aF0
aF0
aF0
aF0
aF0
aF0
aF0
aF0
aF0
aF0
aF0
aF0
aF0
aF0
aF0
aF0
aF0
aF0
aF0
aF0
aF0
aF0
aF0
aF0
aF0
aF0
aF0
aF0
aF0
aF0
aF0
aF0
aF0
aF0
aF0
aF0
aF0
aF0
aF0
aF0
aF0
aF0
aF0
aF0
aF0
aF0
aF0
aF0
aF0
aF0
aF0
aF0
aF0
aF0
aF0
aF0
aF0
aF0
aF0
aF0
aF0
aF0
aF0
aF0
aa(lp22
F-2.6949597016719486e-311
aF-2.4160807422425912e-311
aF-2.2241247005002601e-311
aF-2.1684665848117175e-311
aF-2.0607189983459283e-311
aF-2.0086895793620853e-311
aF-1.9568833033322459e-311
aF-1.9846242655550079e-311
aF-1.8995769788750317e-311
aF-1.9295332527614401e-311
aF-1.9177834651432698e-311
aF-1.3022085137872329e-311
aF-1.084185863864955e-311
aF-1.0762177058481996e-311
aF-1.0205700592866819e-311
aF-1.0204468637772814e-311
aF-9.9735694071696732e-312
aF-1.0436616576648072e-311
aF-1.0078268331597283e-311
aF-1.0426003232888808e-311
aF-2.2279827511570103e-311
aF-1.9641159255302673e-311
aF-1.6013656159562776e-311
aF-1.539861435303708e-311
aF-1.433006772477586e-311
aF-1.2742585959372043e-311
aF-1.2623647149212411e-311
aF-1.2388922620168425e-311
aF-1.2456700902563192e-311
aF-1.1978638409463936e-311
aF-1.8518238451219951e-311
aF-9.5986960331376291e-312
aF-8.7404234828649613e-312
aF-8.607130281504018e-312
aF-8.8485839291064423e-312
aF-7.9066279374677182e-312
aF-7.9678495202689035e-312
aF-8.0837361950352501e-312
aF-8.0113141513945405e-312
aF-8.8728145587603211e-312
aF-2.0706291774166845e-311
aF-1.3779725885207137e-311
aF-1.1232665570141072e-311
aF-1.0133153477881367e-311
aF-1.2351749049049253e-311
aF-9.679290018829244e-312
aF-9.1937044059370081e-312
aF-9.3739454935528164e-312
aF-9.5541572205468782e-312
aF-9.9626925960026679e-312
aF-1.5263317758945205e-311
aF-8.7973450352723221e-312
aF-8.3207888684714059e-312
aF-8.3667339400259236e-312
aF-8.8215417960443678e-312
aF-7.9491474734678105e-312
aF-7.9856568977022348e-312
aF-8.1822403107810795e-312
aF-8.5320394026148202e-312
aF-8.3538435909593119e-312
aF-1.4472066748405119e-311
aF-9.8567208425586301e-312
aF-9.6844253831743328e-312
aF-1.0098141878444079e-311
aF-9.5059163189686973e-312
aF-8.192974585111026e-312
aF-7.6557420054721881e-312
aF-7.8294825715300554e-312
aF-8.5232854407193969e-312
aF-8.6202049689828279e-312
aF-1.5235488049586942e-311
aF-9.3681148599026654e-312
aF-8.917168619208302e-312
aF-8.5303504621340985e-312
aF-7.9170469292800185e-312
aF-7.6139128743402067e-312
aF-7.7741094362666685e-312
aF-8.1325241943121501e-312
aF-8.12631891468963e-312
aF-8.5743284421246923e-312
aF-1.3641284119302212e-311
aF-8.2965263139061469e-312
aF-8.0060946842752886e-312
aF-8.2371683025516061e-312
aF-7.7105671849831673e-312
aF-7.8031302014657674e-312
aF-7.9294184080214044e-312
aF-8.0494263480324293e-312
aF-8.2380050395406101e-312
aF-8.4168601571120332e-312
aF-1.3785098754210472e-311
aF-8.5333705006564558e-312
aF-7.8484996870369457e-312
aF-8.5615333514590368e-312
aF-7.8277083185109709e-312
aF-7.7301170460116022e-312
aF-8.4674079913323673e-312
aF-8.0664160421430916e-312
aF-8.4764686786667892e-312
aF-8.9758571582136676e-312
aF-8.6030623860011458e-313
aa(lp23
F0
aF0
aF0
aF0
aF0
aF0
aF0
aF0
aF0
aF0
aF0
aF0
aF0
aF0
aF0
aF0
aF0
aF0
aF0
aF0
aF0
aF0
aF0
aF0
aF0
aF0
aF0
aF0
aF0
aF0
aF0
aF0
aF0
aF0
aF0
aF0
aF0
aF0
aF0
aF0
aF0
aF0
aF0
aF0
aF0
aF0
aF0
aF0
aF0
aF0
aF0
aF0
aF0
aF0
aF0
aF0
aF0
aF0
aF0
aF0
aF0
aF0
aF0
aF0
aF0
aF0
aF0
aF0
aF0
aF0
aF0
aF0
aF0
aF0
aF0
aF0
aF0
aF0
aF0
aF0
aF0
aF0
aF0
aF0
aF0
aF0
aF0
aF0
aF0
aF0
aF0
aF0
aF0
aF0
aF0
aF0
aF0
aF0
aF0
aF0
aF0
aa(lp24
F-2.2147880602859303e-315
aF-1.9855980673782551e-315
aF-1.8278435934123928e-315
aF-1.7821023091691624e-315
aF-1.6935525341190413e-315
aF-1.6507934054108264e-315
aF-1.608217654107722e-315
aF-1.6310159032605803e-315
aF-1.5611218246678839e-315
aF-1.585740671141072e-315
aF-1.5760843903039584e-315
aF-1.0701888662826278e-315
aF-8.9101217527545258e-316
aF-8.8446373533299999e-316
aF-8.3873105277266376e-316
aF-8.3862980389986151e-316
aF-8.1965390349736696e-316
aF-8.5770832667765375e-316
aF-8.2825833339645394e-316
aF-8.568360933051727e-316
aF-1.8310142399319531e-315
aF-1.6141616146138007e-315
aF-1.3160439651606334e-315
aF-1.2654982235355797e-315
aF-1.1776822792485701e-315
aF-1.0472188947332445e-315
aF-1.0374441962421356e-315
aF-1.0181539218691923e-315
aF-1.0237241167735357e-315
aF-9.8443569547356994e-316
aF-1.5218770590083848e-315
aF-7.888458373908481e-316
aF-7.1831076296989379e-316
aF-7.0735637899555334e-316
aF-7.2719967092719971e-316
aF-6.4978727188532566e-316
aF-6.5481862397434521e-316
aF-6.6434249027771691e-316
aF-6.5839065930589992e-316
aF-7.2919100745341931e-316
aF-1.7016969790205371e-315
aF-1.1324537560952196e-315
aF-9.2312970802905261e-316
aF-8.3276894029475681e-316
aF-1.0150989015327281e-315
aF-7.9546925673571356e-316
aF-7.5556256662719856e-316
aF-7.703752525089506e-316
aF-7.8518551746903802e-316
aF-8.1876002016828514e-316
aF-1.2543791971254191e-315
aF-7.2298872472441247e-316
aF-6.8382409651266873e-316
aF-6.8759998332969754e-316
aF-7.2497727472038953e-316
aF-6.5328164009735413e-316
aF-6.5628208100192219e-316
aF-6.7243781517270324e-316
aF-7.0118521746157804e-316
aF-6.8654061765319766e-316
aF-1.1893521295659662e-315
aF-8.1005098669066065e-316
aF-7.9589129749170407e-316
aF-8.298915958458501e-316
aF-7.8122095686317536e-316
aF-6.7331998420532216e-316
aF-6.2916881565863668e-316
aF-6.4344726835754058e-316
aF-7.0046579365269923e-316
aF-7.0843089272475472e-316
aF-1.2520920832596602e-315
aF-7.6989607306101855e-316
aF-7.3283613979727623e-316
aF-7.0104641465903541e-316
aF-6.5064353211547667e-316
aF-6.2573118594537662e-316
aF-6.3889655815076477e-316
aF-6.6835201579800759e-316
aF-6.6784205111968317e-316
aF-7.046606382560885e-316
aF-1.1210762493611243e-315
aF-6.8183013649786971e-316
aF-6.5796171151218055e-316
aF-6.769519398184045e-316
aF-6.3367449178179405e-316
aF-6.4128156124293422e-316
aF-6.5166025498608399e-316
aF-6.6152281811164925e-316
aF-6.7702070387499268e-316
aF-6.9171948786275248e-316
aF-1.1328953124442209e-315
aF-7.0129460853622376e-316
aF-6.4501014127437373e-316
aF-7.036091035200752e-316
aF-6.4330145476348345e-316
aF-6.3528114879616166e-316
aF-6.9587363627889381e-316
aF-6.6291907727073536e-316
aF-6.9661826731702344e-316
aF-7.3765931238576411e-316
aF-7.0702206947629486e-317
aa(lp25
F-1.0311119702957474e-314
aF-9.2441077034808874e-315
aF-8.5096693680820255e-315
aF-8.2967172032928443e-315
aF-7.8844667879117909e-315
aF-7.6853982926672041e-315
aF-7.4871835626212569e-315
aF-7.5933225835509417e-315
aF-7.2679252328603743e-315
aF-7.3825402019179451e-315
aF-7.3375846253306396e-315
aF-4.9823482916905647e-315
aF-4.1481771387456893e-315
aF-4.1176903635286611e-315
aF-3.9047782575820447e-315
aF-3.9043068991932863e-315
aF-3.8159631099922293e-315
aF-3.9931284597551848e-315
aF-3.8560217104648711e-315
aF-3.9890677144493897e-315
aF-8.5244305624421679e-315
aF-7.5148561250976041e-315
aF-6.1269459936156167e-315
aF-5.8916263456288733e-315
aF-5.4827923250196217e-315
aF-4.875409788554749e-315
aF-4.8299029038758751e-315
aF-4.7400955193088602e-315
aF-4.7660280023431804e-315
aF-4.5831176770130087e-315
aF-7.0852181266116501e-315
aF-3.6725337186409254e-315
aF-3.3441521472209429e-315
aF-3.2931531596537073e-315
aF-3.3855351548857961e-315
aF-3.0251356642277282e-315
aF-3.0485595042420071e-315
aF-3.0928986252416835e-315
aF-3.0651894030944149e-315
aF-3.3948059755873373e-315
aF-7.9223838855458161e-315
aF-5.2722273717960469e-315
aF-4.2977028258636542e-315
aF-3.8770211802363199e-315
aF-4.7258726292324876e-315
aF-3.7033695907619922e-315
aF-3.5175808587417752e-315
aF-3.5865424625377931e-315
aF-3.6554928312810245e-315
aF-3.8118015604727132e-315
aF-5.8398608448560538e-315
aF-3.3659307634565399e-315
aF-3.1835967706428985e-315
aF-3.2011757004317769e-315
aF-3.3751886297568471e-315
aF-3.0414039613746012e-315
aF-3.0553727436080048e-315
aF-3.1305870445915311e-315
aF-3.2644228223922399e-315
aF-3.1962437592913571e-315
aF-5.5371222241206156e-315
aF-3.7712559644336222e-315
aF-3.7053344157256559e-315
aF-3.863625479567497e-315
aF-3.6370354972397485e-315
aF-3.1346940591450592e-315
aF-2.9291448109515001e-315
aF-2.9956192635830708e-315
aF-3.2610734920912046e-315
aF-3.2981556336057275e-315
aF-5.8292129890897062e-315
aF-3.584311617808439e-315
aF-3.4117761769752877e-315
aF-3.2637766240527312e-315
aF-3.0291220526538241e-315
aF-2.9131406660021761e-315
aF-2.9744330864040586e-315
aF-3.1115652800751331e-315
aF-3.1091910970206076e-315
aF-3.2806029288213303e-315
aF-5.2192585049735906e-315
aF-3.1743137316979356e-315
aF-3.063192394694581e-315
aF-3.151602907461109e-315
aF-2.9501213363143561e-315
aF-2.9855366485595044e-315
aF-3.0338554732770885e-315
aF-3.0797714196074366e-315
aF-3.1519230521183012e-315
aF-3.2203543703159812e-315
aF-5.2742830702539502e-315
aF-3.2649321102006295e-315
aF-3.002895358468062e-315
aF-3.2757074299629477e-315
aF-2.9949404223263414e-315
aF-2.9576012629221955e-315
aF-3.239694357574209e-315
aF-3.0862718017845182e-315
aF-3.243161043288101e-315
aF-3.434230852878028e-315
aF-3.2915967540561782e-316
aa(lp26
F-5.3279191635711381e-312
aF-4.7765771337293717e-312
aF-4.3970811907154525e-312
aF-4.2870454298873117e-312
aF-4.0740290978036079e-312
aF-3.9711672485860033e-312
aF-3.8687465516556928e-312
aF-3.9235902675561573e-312
aF-3.7554522919757698e-312
aF-3.8146756657481953e-312
aF-3.7914464061071902e-312
aF-2.5744584200149274e-312
aF-2.1434289490013806e-312
aF-2.1276759484052907e-312
aF-2.0176608849702448e-312
aF-2.0174173281906414e-312
aF-1.97176868881027e-312
aF-2.0633128364431895e-312
aF-1.9924676033655295e-312
aF-2.0612145847485545e-312
aF-4.4047085337206513e-312
aF-3.8830454023537916e-312
aF-3.1658902164052903e-312
aF-3.0442968202110639e-312
aF-2.8330457928073308e-312
aF-2.5192016000919841e-312
aF-2.495687468671847e-312
aF-2.4492825700873471e-312
aF-2.4626822958595801e-312
aF-2.3681696277572381e-312
aF-3.6610446330106914e-312
aF-1.8976564476474974e-312
aF-1.7279764793229573e-312
aF-1.7016244933749464e-312
aF-1.7493597346587006e-312
aF-1.5631356001784814e-312
aF-1.5752390703719702e-312
aF-1.5981497964544476e-312
aF-1.5838320018714002e-312
aF-1.754150115606327e-312
aF-4.0936214623756518e-312
aF-2.7242435412653783e-312
aF-2.2206912449169131e-312
aF-2.0033183638591167e-312
aF-2.4419333773797861e-312
aF-1.913589830271966e-312
aF-1.8175898458968011e-312
aF-1.8532234007962588e-312
aF-1.8888511511160698e-312
aF-1.9696183497656786e-312
aF-3.0175487647199027e-312
aF-1.7392298360854521e-312
aF-1.645014967790252e-312
aF-1.6540982808708065e-312
aF-1.7440135211738287e-312
aF-1.5715416869398611e-312
aF-1.578759578204055e-312
aF-1.6176240010474931e-312
aF-1.6867790716619883e-312
aF-1.6515498665939316e-312
aF-2.8611189145940375e-312
aF-1.9486677976808573e-312
aF-1.9146050887221178e-312
aF-1.9963965916549661e-312
aF-1.8793139538099256e-312
aF-1.6197461606429589e-312
aF-1.5135356019227436e-312
aF-1.5478840076069648e-312
aF-1.6850484186466379e-312
aF-1.7042093512431325e-312
aF-3.0120468478745937e-312
aF-1.8520706880166942e-312
aF-1.7629188867489351e-312
aF-1.6864451691391869e-312
aF-1.5651954286101688e-312
aF-1.5052660077919971e-312
aF-1.5369367719868366e-312
aF-1.6077951546414233e-312
aF-1.6065683745836786e-312
aF-1.6951395894049935e-312
aF-2.6968736871976523e-312
aF-1.6402182753071603e-312
aF-1.5828001163533922e-312
aF-1.6284832320693081e-312
aF-1.5243745070246008e-312
aF-1.5426741598569056e-312
aF-1.5676412625320292e-312
aF-1.5913667602848082e-312
aF-1.6286486544668007e-312
aF-1.6640082039187213e-312
aF-2.7253057542471358e-312
aF-1.6870422289447243e-312
aF-1.5516436799355362e-312
aF-1.6926100076556113e-312
aF-1.5475332388539499e-312
aF-1.5282395028199403e-312
aF-1.674001480421078e-312
aF-1.5947256126142227e-312
aF-1.6757927728749694e-312
aF-1.7745215757043509e-312
aF-1.7008202728717643e-313
aa(lp27
F-1.2057018796192699e-311
aF-1.0809338226562012e-311
aF-9.9505433429542525e-312
aF-9.701533702253876e-312
aF-9.2194802324199219e-312
aF-8.9867050698605124e-312
aF-8.7549282297589721e-312
aF-8.8790389178492843e-312
aF-8.4985446442501161e-312
aF-8.6325664469066985e-312
aF-8.5799989038475537e-312
aF-5.82596931507288e-312
aF-4.8505546598998236e-312
aF-4.8149058036588571e-312
aF-4.5659430009350599e-312
aF-4.5653918347836109e-312
aF-4.4620894973968127e-312
aF-4.6692528335447384e-312
aF-4.5089308991059386e-312
aF-4.6645045144855588e-312
aF-9.9678039310302935e-312
aF-8.7872863617658129e-312
aF-7.1643725578455505e-312
aF-6.8892081233990671e-312
aF-6.4111495174156272e-312
aF-5.7009237774099559e-312
aF-5.6477115728321377e-312
aF-5.5426978297058289e-312
aF-5.5730212525072603e-312
aF-5.3591401892254594e-312
aF-8.2849012154126658e-312
aF-4.2943743618372329e-312
aF-3.9103905766814535e-312
aF-3.8507563404772065e-312
aF-3.9587806335951442e-312
aF-3.537357593785937e-312
aF-3.5647476053713454e-312
aF-3.6165943107243088e-312
aF-3.5841933089229957e-312
aF-3.9696212096863035e-312
aF-9.2638175244577466e-312
aF-6.1649312938203862e-312
aF-5.0253983325405065e-312
aF-4.5334860432893086e-312
aF-5.5260666924927018e-312
aF-4.3304314204902277e-312
aF-4.11318457787115e-312
aF-4.1938228961324541e-312
aF-4.2744480787050168e-312
aF-4.4572233052724366e-312
aF-6.828677586446999e-312
aF-3.9358567915173821e-312
aF-3.7226496457081939e-312
aF-3.7432050770584719e-312
aF-3.9466822149610294e-312
aF-3.5563804698759283e-312
aF-3.5727144734602678e-312
aF-3.6606642081056233e-312
aF-3.8171613246515877e-312
aF-3.737438045328703e-312
aF-6.4746786639141932e-312
aF-4.4098124507676197e-312
aF-4.3327289384990511e-312
aF-4.5178221536873173e-312
aF-4.2528655126731681e-312
aF-3.6654666304705767e-312
aF-3.4251133774455875e-312
aF-3.5028434180598722e-312
aF-3.8132448771019825e-312
aF-3.8566058436257825e-312
aF-6.8162268129312826e-312
aF-4.1912143205935328e-312
aF-3.9894648362980184e-312
aF-3.8164057071498014e-312
aF-3.5420189614514813e-312
aF-3.4063993825759306e-312
aF-3.4780699517912588e-312
aF-3.6384216435766374e-312
aF-3.6356454546418885e-312
aF-3.8360810785892366e-312
aF-6.1029936339517192e-312
aF-3.7117947866831603e-312
aF-3.5818581640603425e-312
aF-3.6852385209935735e-312
aF-3.4496416930047141e-312
aF-3.4910535934852571e-312
aF-3.547553855039346e-312
aF-3.6012443791487803e-312
aF-3.6856128699534389e-312
aF-3.7656311170893022e-312
aF-6.1673350693814285e-312
aF-3.8177568465098201e-312
aF-3.5113515125986488e-312
aF-3.8303566646557572e-312
aF-3.5020496324602818e-312
aF-3.4583881333237956e-312
aF-3.7882457850152085e-312
aF-3.608845422723449e-312
aF-3.792299458897753e-312
aF-4.015721585791469e-312
aF-3.8489363988808019e-313
aa(lp28
F-2.3785980004334812e-315
aF-2.1324566843861833e-315
aF-1.9630343907127293e-315
aF-1.9139099870189446e-315
aF-1.8188109024708341e-315
aF-1.7728892249789943e-315
aF-1.7271644968755561e-315
aF-1.7516489426711059e-315
aF-1.6765853712348128e-315
aF-1.7030250719424665e-315
aF-1.6926545945110071e-315
aF-1.1493420710430282e-315
aF-9.5691313132730017e-316
aF-9.498803588322294e-316
aF-9.0076519416602191e-316
aF-9.0065646019868517e-316
aF-8.8027706751604939e-316
aF-9.2114606904559522e-316
aF-8.8951789843288802e-316
aF-9.2020932552173667e-316
aF-1.9664395405504318e-315
aF-1.7335480819339608e-315
aF-1.4133810781525885e-315
aF-1.3590968850644913e-315
aF-1.2647859043906881e-315
aF-1.1246732004231988e-315
aF-1.1141755406131869e-315
aF-1.093458523230809e-315
aF-1.09944070465525e-315
aF-1.057246436259269e-315
aF-1.6344379847279657e-315
aF-8.4719037559156716e-316
aF-7.7143839284698471e-316
aF-7.5967380544199858e-316
aF-7.809847391372422e-316
aF-6.9784677636737707e-316
aF-7.0325025376018779e-316
aF-7.1347852427680473e-316
aF-7.0708648575519965e-316
aF-7.8312336157314353e-316
aF-1.827557727029709e-315
aF-1.2162121912064145e-315
aF-9.9140613664676137e-316
aF-8.9436211821788873e-316
aF-1.0901775469118758e-315
aF-8.5430368078691005e-316
aF-8.114454128662007e-316
aF-8.2735366955497987e-316
aF-8.4325933733977483e-316
aF-8.793170683222411e-316
aF-1.3471554715648586e-315
aF-7.7646234383262956e-316
aF-7.3440102850194442e-316
aF-7.38456185925285e-316
aF-7.7859797717137355e-316
aF-7.0159959525940156e-316
aF-7.0482195068945567e-316
aF-7.2217259744667315e-316
aF-7.5304621124242576e-316
aF-7.3731847131866761e-316
aF-1.2773188775100559e-315
aF-8.6996390169950754e-316
aF-8.5475693166974835e-316
aF-8.9127195993269236e-316
aF-8.3900154383244892e-316
aF-7.2312001278848186e-316
aF-6.757033371182345e-316
aF-6.910378501944676e-316
aF-7.5227357656348984e-316
aF-7.6082778963033352e-316
aF-1.3446991945626201e-315
aF-8.2683905571892808e-316
aF-7.8703809565862311e-316
aF-7.5289714175576254e-316
aF-6.9876636593201201e-316
aF-6.7201145628296807e-316
aF-6.8615056270711891e-316
aF-7.177846028196987e-316
aF-7.1723692116997076e-316
aF-7.5677867957049804e-316
aF-1.2039931869236659e-315
aF-7.3225958989186179e-316
aF-7.0662580906570435e-316
aF-7.2702059683386455e-316
aF-6.8054226051951179e-316
aF-6.8871196699747952e-316
aF-6.9985828559391638e-316
aF-7.1045030700162748e-316
aF-7.2709444482594844e-316
aF-7.4288037580147377e-316
aF-1.2166864052946058e-315
aF-7.5316369511235035e-316
aF-6.9271631965045824e-316
aF-7.5564937396117287e-316
aF-6.9088125114736176e-316
aF-6.8226775020301714e-316
aF-7.4734177870210731e-316
aF-7.1194983082135087e-316
aF-7.4814148323777887e-316
aF-7.922180034060342e-316
aF-7.5931476793716574e-317
aasS'D'
I101
sS'H'
I22
sS'K'
I1
sS'aHistory'
p29
I5
sS'search'
p30
(iML1050.Utils.NNParameterSearch
NNParameterSearch
p31
(dp32
S'rangeHiddenUnits'
p33
(lp34
I1
aI11
aI21
aI31
aI41
aI51
aI61
aI71
aI81
aI91
asS'inputs'
p35
I100
sS'logLevel'
p36
I10
sS'outputs'
p37
I1
sS'k'
I10
sS'errorsHL'
p38
(lp39
(lp40
F0.28222222222222226
aF0.28555555555555556
aF0.28555555555555551
aF0.49777777777777776
aF0.47222222222222215
aF0.2877777777777778
aF0.34999999999999998
aa(lp41
F0.43888888888888883
aF0.42222222222222222
aF0.34111111111111114
aF0.53777777777777769
aF0.36222222222222228
aF0.32999999999999996
aF0.39666666666666667
aa(lp42
F0.49555555555555547
aF0.31888888888888889
aF0.42999999999999999
aF0.28444444444444444
aF0.27555555555555561
aF0.50666666666666671
aF0.37444444444444447
aa(lp43
F0.41777777777777769
aF0.35222222222222221
aF0.46888888888888891
aF0.28555555555555556
aF0.31888888888888889
aF0.34000000000000002
aF0.45333333333333331
aa(lp44
F0.51555555555555554
aF0.41888888888888892
aF0.39777777777777779
aF0.43555555555555542
aF0.47444444444444456
aF0.36555555555555558
aF0.5344444444444445
aa(lp45
F0.39777777777777784
aF0.38666666666666666
aF0.44888888888888889
aF0.41777777777777769
aF0.37333333333333335
aF0.39111111111111113
aF0.38777777777777783
aa(lp46
F0.45444444444444443
aF0.51222222222222236
aF0.5066666666666666
aF0.53666666666666663
aF0.43666666666666665
aF0.29666666666666669
aF0.39333333333333337
aa(lp47
F0.29777777777777781
aF0.49888888888888888
aF0.40777777777777774
aF0.39333333333333337
aF0.38666666666666666
aF0.28444444444444444
aF0.44000000000000006
aa(lp48
F0.44777777777777772
aF0.36333333333333329
aF0.38444444444444448
aF0.41000000000000003
aF0.64777777777777779
aF0.33888888888888891
aF0.42999999999999999
aa(lp49
F0.52555555555555555
aF0.33666666666666673
aF0.46222222222222226
aF0.36444444444444446
aF0.28666666666666674
aF0.4499999999999999
aF0.38111111111111107
aasS'epocsErrors'
p50
(lp51
(lp52
F0.46306835290575127
aF0.3832731105088828
aF0.40522433002107805
aF0.45819030412526346
aF0.41985847636254137
aF0.36619993977717558
aF0.41254140319180965
aa(lp53
F0.40333333333333343
aF0.26333333333333331
aF0.49666666666666659
aF0.44777777777777777
aF0.36333333333333334
aF0.41888888888888881
aF0.42999999999999999
aasS'epocsRange'
p54
(lp55
I10
aI30
aI50
aI100
aI150
aI200
aI300
asS'rangeLearningRate'
p56
(lp57
F0.050000000000000003
aF0.10000000000000001
aF0.20000000000000001
aF0.29999999999999999
aF0.40000000000000002
aF0.5
aF0.59999999999999998
asS'errorsEpocs'
p58
NsS'regression'
p59
I00
sbsg59
I00
sS'W'
(lp60
(lp61
F0.03126297572245211
aF0.038569975325503845
aF0.020732052692547652
aF0.031203325769201224
aF0.032095540425288255
aF0.017494074717956675
aF0.013364917180981954
aF0.021134135993435405
aF0.015962976225642023
aF0.030061131213783149
aF0.025971915965476065
aF0.02777059571354944
aF0.038903627489742167
aF0.037257956562026268
aF0.032240102433778645
aF0.033211131572014156
aF0.035446264675832909
aF0.028084081372563265
aF0.033846912396806116
aF0.030265871320798516
aF0.021832267799677875
aF0.032484153933362403
aF0.017417150771836861
aF0.010318144422634727
aF0.013854149270772172
aF0.013180929928956371
aF0.024460999871010233
aF0.026008385524475538
aF0.024501506562906884
aF0.023525081887040975
aF0.025404289337520015
aF0.010870092766508913
aF0.020571601588178577
aF0.020360723571607765
aF0.015606507823221203
aF0.015508437373483796
aF0.009014482964795973
aF0.0075742940099548742
aF0.013521628245166589
aF0.0067925466684492933
aF0.021411441192600248
aF0.020807779922858542
aF0.0063886273679887506
aF0.0059178287430211368
aF0.0042693915385610291
aF0.017233114573056228
aF0.007287441428371913
aF0.0028772718122502274
aF0.017650920442725506
aF0.0041203244420958589
aF0.011987010909230801
aF0.00089999336485259559
aF0.007324180978497144
aF0.018168802402459022
aF0.017811162480369611
aF0.0058474356785151484
aF0.015744165147557516
aF0.0020415760119394527
aF0.014413829424029115
aF0.017227571113907238
aF0.021574617604006981
aF0.0064647387991279013
aF0.005017381184440675
aF0.0059718985660529821
aF0.012094512344130086
aF-8.2412326431506469e-05
aF-0.001046440141268428
aF0.000440481816476814
aF0.0066000580710442146
aF0.0084151682702334786
aF0.0084807715984679174
aF0.012764466426332414
aF0.014579363398967916
aF0.014708607973642152
aF0.010606846260964959
aF0.012338129344086374
aF0.010194382435604742
aF0.0060792182724035103
aF0.0035661250621751737
aF-3.1248524393170397e-07
aF0.024983363039699273
aF0.004332296845945739
aF0.00563796934650794
aF0.0078170134049310586
aF0.0035890801319025255
aF0.0044136999751896201
aF0.0010483220742878714
aF0.018580010494299939
aF0.013854126862643579
aF0.0028989553174282685
aF0.021412279620436698
aF0.015334115257610477
aF0.011088956627459363
aF0.0006775108099899347
aF0.013582633029729283
aF0.013208306138109922
aF0.0064395137072501786
aF0.012822811083328335
aF0.018679325552919727
aF0.017121699907105083
aF-0.0081531352786951786
aa(lp62
F0.1217694743991454
aF0.10231551239504506
aF0.083512249156338619
aF0.076283810050789241
aF0.083122603469894391
aF0.078563191243038552
aF0.067902343478008095
aF0.067401767881928823
aF0.069488922536589975
aF0.066176714306018847
aF0.11058994885188991
aF0.077356804712692809
aF0.073269871664782979
aF0.066790253996485943
aF0.072291772350790706
aF0.060407097973069923
aF0.053050136876319327
aF0.053758608144230391
aF0.067280981441440665
aF0.066286660713494122
aF0.10590346865166135
aF0.061493822224193924
aF0.052288584194646742
aF0.060914753056116933
aF0.055583797052879982
aF0.050542004585746897
aF0.044093445774571478
aF0.053397100156203373
aF0.053113247022183348
aF0.05038423216028539
aF0.1093549721328682
aF0.086333580925067793
aF0.086253573536216918
aF0.083060402718052304
aF0.082830469769210185
aF0.068610761134322421
aF0.075481523481807727
aF0.076234214546475165
aF0.072152654764977925
aF0.072064741928583365
aF0.10078748828677805
aF0.086291007405757569
aF0.068330727221869891
aF0.064789513997454751
aF0.077148422755346571
aF0.057433416439254759
aF0.068719126153080831
aF0.068562974014398287
aF0.05259789517871756
aF0.066776888489570169
aF0.059677563165464485
aF0.036457702658048222
aF0.034640623582277631
aF0.051889592690943315
aF0.044968755942415513
aF0.045191813680419766
aF0.047792331821873632
aF0.039832869732419875
aF0.038072911152427537
aF0.036846323198146354
aF0.093555323189870324
aF0.049777087816403325
aF0.044078481333415742
aF0.046336883741677472
aF0.043629555120490798
aF0.032796944969553023
aF0.031330606037225414
aF0.047547938250218108
aF0.035589288921241892
aF0.04110025755112616
aF0.063080733695227903
aF0.044001291241180518
aF0.029761361079890043
aF0.039776420710227668
aF0.03223850952827563
aF0.04301044909909707
aF0.034356570010959743
aF0.036124322554992101
aF0.03413501602831033
aF0.046067610556430591
aF0.062571000524173498
aF0.037549994704958019
aF0.049396731702056648
aF0.037562605031481636
aF0.03124088588454426
aF0.036509769605109883
aF0.031336635329422213
aF0.03486994732723122
aF0.048303635469102685
aF0.03487902911112771
aF0.077015695327684749
aF0.051736454260087932
aF0.038162218922405629
aF0.044410127572842885
aF0.049617646535538705
aF0.029078205311476441
aF0.030321220826997036
aF0.045043464965192785
aF0.046879926643310636
aF0.039295828039882394
aF0.0019255781283879126
aa(lp63
F-0.041297972946269468
aF-0.036364720044269709
aF-0.033434801808051168
aF-0.027416405847498052
aF-0.034236932264477375
aF-0.036012406884629262
aF-0.026885435732123854
aF-0.033275285245319891
aF-0.026094793442759473
aF-0.027809537790604157
aF-0.03408636109689045
aF-0.020013333360687436
aF-0.02417781260826336
aF-0.01418580526296271
aF-0.02886717592053813
aF-0.021102579710851988
aF-0.011732823397090189
aF-0.011628687098592473
aF-0.02054137833486441
aF-0.018777939282698886
aF-0.048770161351278575
aF-0.024287852996691152
aF-0.035892433029713212
aF-0.036412002200773695
aF-0.026953227185983565
aF-0.024164224439067999
aF-0.029369345101058899
aF-0.024907855949607472
aF-0.018819897664258945
aF-0.025901326086260293
aF-0.04101264925342607
aF-0.02520773073906743
aF-0.029952266089249651
aF-0.02047064319631545
aF-0.016703439284983312
aF-0.02235138203797123
aF-0.011657832185221194
aF-0.015625716594512895
aF-0.0089274369240497659
aF-0.019033223425734793
aF-0.021283921306967726
aF-0.0087196608457409137
aF-0.013523377658556648
aF-0.010245114608431272
aF-0.015826009475709588
aF-0.014718696479775846
aF-0.020962246827011206
aF-0.022339790156720309
aF-0.016916355314742448
aF-0.018872288940341233
aF-0.028512521104265824
aF-0.015774240333352521
aF-0.021048930195067657
aF-0.012364207182696971
aF-0.010122523196075914
aF-0.015038188219536702
aF-0.016730520091701454
aF-0.00756989068038629
aF-0.0099644155746325715
aF-0.021440182072042284
aF-0.013196485544170813
aF-0.01547816567603634
aF-0.0034624096127454291
aF-0.0083342692233259793
aF-0.004822358468642601
aF-0.014556636126670078
aF-0.012795309370988378
aF-0.023439423794851911
aF-0.0078613863451369188
aF-0.017436739170232876
aF-0.012266998151503377
aF-0.01950061038898401
aF-0.022132894723157128
aF-0.0066400617367307294
aF-0.011454695873967876
aF-0.0034291667495129833
aF-0.020604488115147503
aF-0.0051506585930202768
aF-0.0044162142264414393
aF-0.013560597434442592
aF-0.014228352231397883
aF-0.016535967730462602
aF-0.021583586800262969
aF-0.023331351101777437
aF-0.023252258031303465
aF-0.013349081958631917
aF-0.0058375746444282468
aF-0.017386675443081673
aF-0.0046528771524096471
aF-0.0089998828957400592
aF-0.030040352504798938
aF-0.0061474446750267682
aF-0.013190163485264274
aF-0.0055756473597073312
aF-0.0153832537543361
aF-0.014725033374952861
aF-0.011573766191047699
aF-0.016792692306426837
aF-0.0070981176162668016
aF-0.0061126503472988111
aF-0.0018057652633024473
aa(lp64
F-0.033620463838523705
aF-0.019660273089439025
aF-0.021113406760754145
aF-0.017385462148020017
aF-0.019641739079841035
aF-0.027418576870941416
aF-0.017889567360988751
aF-0.025142128863415183
aF-0.020514129880979688
aF-0.026444865984589283
aF-0.025873855867621913
aF-0.015987620955791381
aF-0.020549287543169526
aF-0.015839607674072418
aF-0.011796244274320493
aF-0.0099751186323655695
aF-0.0089296356369638931
aF-0.023727704170141521
aF-0.010101739574044808
aF-0.016244661563288049
aF-0.022758722798913399
aF-0.034062514961868073
aF-0.013928492091600027
aF-0.019263032015248541
aF-0.022748706149367491
aF-0.025243336238843238
aF-0.016574566388131727
aF-0.017823684592267307
aF-0.018815211422743824
aF-0.025825236605637326
aF-0.014563467775581441
aF-0.024200227255971294
aF-0.023363833379704557
aF-0.014377749817756904
aF-0.023533455691909823
aF-0.003098643987052199
aF-0.010195840285228104
aF-0.010872532548470865
aF-0.017533677376951041
aF-0.023622160629901828
aF-0.0072152322870471788
aF-0.008161703860014833
aF-0.00036444924541331188
aF-0.0099495937376732416
aF-0.016832867505529259
aF-0.0053064505215415139
aF-0.017912359763968773
aF-0.0051476657006331054
aF-0.0073421122857068302
aF-0.017955544328623046
aF-0.027724714269257308
aF-0.014318928848932266
aF-0.015108046473940439
aF-0.0073908911518696134
aF-0.017712826333310554
aF-0.0095711057606642277
aF-0.017028373696545716
aF-0.012219571486097015
aF-0.014494434297674115
aF-0.018140727607816043
aF-0.026405860214037329
aF-0.0018962234554996782
aF-0.0027397310761280978
aF-0.016251110064979122
aF-0.0075348559042487081
aF-0.005684359182552166
aF-0.0036825703735096282
aF-0.0022522422907979727
aF-0.0044305932111385277
aF-0.011643214562308549
aF-0.007264150758347316
aF-0.0091467135120588492
aF-0.011275508474776267
aF-0.0086614443134712185
aF-0.012796416461686217
aF-0.013276552770333764
aF-0.01316161821033222
aF-0.0045189640989308881
aF-0.0041221241544494155
aF-0.0082236845199390243
aF-0.017525359866391116
aF-0.0010537017783662256
aF-0.0020561754166926903
aF-0.00096124582261927858
aF-0.018680942554110052
aF-0.0033618348544184871
aF-0.016127846532154815
aF-0.0048978923172669211
aF-0.0092564198879960483
aF-0.012405428503545087
aF-0.020130883076360406
aF-0.011593577241843787
aF-0.00483057882333015
aF-0.0118524511165881
aF-0.014447273503564399
aF1.139106001585188e-05
aF-0.014583949902374514
aF-0.0027505461844155484
aF-0.01689902976110888
aF-0.0085226313105532855
aF-0.0053678628634098863
aa(lp65
F0.18508270147607689
aF0.14463885834701584
aF0.12308776091522217
aF0.12432678667350371
aF0.1190339882316479
aF0.12214272801627342
aF0.10978048805424499
aF0.10206283140944424
aF0.11451089158574629
aF0.10170454353609271
aF0.17473394708455647
aF0.11770876721461515
aF0.099159666831806437
aF0.10079088223340769
aF0.091538886704047473
aF0.081963688344866267
aF0.098399271381216125
aF0.095398585327037572
aF0.09905484162214416
aF0.093024353191997311
aF0.1431641130455992
aF0.10544610118562954
aF0.093878555438698205
aF0.077582441070852229
aF0.074274265212307802
aF0.072304779773066763
aF0.070184785009305167
aF0.074008944199829924
aF0.083562876589821172
aF0.080965209777949576
aF0.16506359166173479
aF0.13103459067792445
aF0.11746416717080016
aF0.13418186677058624
aF0.12478038381478385
aF0.096334877871722902
aF0.11079010905966492
aF0.09994257398474285
aF0.10764906650214683
aF0.10061440581656755
aF0.15737361217454107
aF0.13089591150327698
aF0.1049032630673767
aF0.10131312149809957
aF0.10829031687437639
aF0.10227014906337992
aF0.09372481051776671
aF0.089727783382918758
aF0.082487969064907921
aF0.089624131481943342
aF0.097405615020198594
aF0.071937539617168297
aF0.051282941067738258
aF0.054631086039336162
aF0.053995781751354235
aF0.049450854665869723
aF0.066845982118079045
aF0.053916438113608384
aF0.070067136197850918
aF0.057046644254295946
aF0.12745222811524118
aF0.080929730768965299
aF0.074381195022248714
aF0.076413132934825448
aF0.053506396110541726
aF0.062842793028189209
aF0.057998887671919956
aF0.056924602433694849
aF0.054688270505971331
aF0.057333019005935022
aF0.093682017917575383
aF0.053182515967600957
aF0.059626763546935774
aF0.072880238203287456
aF0.052489165519020692
aF0.048627491711711691
aF0.06210934688226083
aF0.062244145665337716
aF0.069157979370749231
aF0.05620182842183364
aF0.1063898433671531
aF0.055597692159742633
aF0.058241359955341639
aF0.070786237444371389
aF0.059072113715230176
aF0.065727146139396675
aF0.066230774687732599
aF0.053531905244454919
aF0.057175627885684963
aF0.055692736471472035
aF0.10841237815364275
aF0.069224661392967207
aF0.065225791510127681
aF0.070766831085043308
aF0.068543876456654065
aF0.049543998317254423
aF0.061727783072991788
aF0.069220894049079537
aF0.067332898151888185
aF0.056934821971840167
aF0.012519401450720169
aa(lp66
F-0.040682353087880832
aF-0.021551204575299861
aF-0.027360694235867844
aF-0.031012427174240811
aF-0.026888501548805024
aF-0.023913328009302365
aF-0.012893538109773554
aF-0.019803856526797555
aF-0.014461036342314239
aF-0.026552140170710253
aF-0.028633394743803116
aF-0.017099849368844851
aF-0.023939468349552094
aF-0.019895254057566945
aF-0.020214087394909912
aF-0.018761748002362074
aF-0.02043181314651419
aF-0.019471199278280081
aF-0.0084073482457461546
aF-0.0091594448755965667
aF-0.038691149806276422
aF-0.026884188563092746
aF-0.018547733607193972
aF-0.020518739077164675
aF-0.026880295992800989
aF-0.026802247612888665
aF-0.025184024863330129
aF-0.017789774011270756
aF-0.011523362486596592
aF-0.02419741098340784
aF-0.01886099160562095
aF-0.029698085164390035
aF-0.010671642586180374
aF-0.023481320692976478
aF-0.021728721672539173
aF-0.013238857176574925
aF-0.018043599640803008
aF-0.019787207287397312
aF-0.015815431905789146
aF-0.0092269805401246404
aF-0.018139261711722626
aF-0.014367558463166502
aF-0.012677039148669283
aF-0.0044891570482443457
aF-0.019745412838417277
aF-0.014851371064763251
aF-0.0074961287843105882
aF-0.013005474297787978
aF-0.014971528457960832
aF-0.010206896538233935
aF-0.018482501350139808
aF-0.015616920796114755
aF-0.011295039010081498
aF-0.016891979133316689
aF-0.015748465190759151
aF-0.0029477672964833821
aF-0.0066702115409482511
aF-0.016493606584442738
aF-0.0020895564791998675
aF-0.0060715025976424064
aF-0.013725919611918326
aF-0.012878610177458963
aF-0.00051311630161280785
aF-0.00631398841122252
aF-0.01719041522565894
aF-0.0098670566419076615
aF-0.0048369930829626545
aF-0.010848290953662024
aF-0.021081292218097146
aF-0.019801857853595329
aF-0.026222602771888134
aF-0.0090784120623806346
aF-0.00069670932125525916
aF-0.010781999413551064
aF-0.0083162751064160892
aF-0.014837298877650866
aF-0.0098116507793447032
aF-0.014058616788178093
aF-0.0059284990098403658
aF-0.0065501876215589821
aF-0.013765253622150614
aF-0.0095173576448935662
aF-0.015750344274417637
aF-0.0055127380119258549
aF-0.0026783958945839946
aF-0.0059917181650073949
aF-0.017935707752460957
aF-0.005849105539700231
aF-0.0066796409970343064
aF-0.0045704553772279331
aF-0.012569935339040271
aF-0.012824286781316321
aF-0.0090733423545918505
aF-0.011155129800616356
aF-0.019382187068083586
aF-0.0045180684570003352
aF-0.0065998819541608633
aF-0.015621901022516645
aF-0.00079872837121602001
aF-0.0095396436280851659
aF-0.0072645143758650029
aa(lp67
F0.031157914406890561
aF0.04080471293622516
aF0.02492588081476034
aF0.025741295560739941
aF0.021426382213102418
aF0.019266408666349818
aF0.03177672140252031
aF0.025160731792651384
aF0.019515491481974567
aF0.02652568880677553
aF0.038405362169044506
aF0.018897433022060022
aF0.027309093102862326
aF0.025269141350447211
aF0.023837679389750833
aF0.015183279403833289
aF0.011150963280759497
aF0.01436014979869529
aF0.015118269907783232
aF0.02312498044027567
aF0.033517229041907931
aF0.026808057415509842
aF0.026993665645507148
aF0.016089965194749683
aF0.018848193625276621
aF0.008489745229683307
aF0.02009534264165384
aF0.012529153494820786
aF0.023344052631612076
aF0.023888705760368494
aF0.036846530905414128
aF0.024330885513302966
aF0.030729139331946927
aF0.025281378141461589
aF0.027388644151738216
aF0.028148358293852562
aF0.015193509822227839
aF0.030249358511104524
aF0.024104642531330215
aF0.033013225298504041
aF0.041829311186611699
aF0.021768700463033204
aF0.017682210742837733
aF0.033739834606133168
aF0.031620521987732311
aF0.017452299896127711
aF0.012228706017177854
aF0.015705909526990098
aF0.011695645745950547
aF0.031479305111715317
aF0.017996103068114909
aF0.0086492235487929912
aF0.003409183978904978
aF0.0075886223699834022
aF0.012117079770257142
aF0.0098640261664569868
aF0.014499648521112411
aF0.003680413667362035
aF0.012798496235922312
aF0.0082047701573695238
aF0.033835227372260072
aF0.019157161521755898
aF0.019862248491320528
aF0.0055572329450967982
aF0.010161641434982611
aF0.019388748009479265
aF0.021628030834957773
aF0.017417457236905031
aF0.022777893979149883
aF0.017998993240218874
aF0.013821417589082941
aF0.0097550011123970597
aF0.014244685214755685
aF0.020795341692321546
aF0.017439721031981929
aF0.0064817260735100047
aF0.020416039266394164
aF0.0091947903594421683
aF0.0047578471890131853
aF0.018666406609539735
aF0.026525301508107817
aF0.0045535559354113143
aF0.0203553856633438
aF0.0051003046884851152
aF0.013232618727891584
aF0.010060989040961262
aF0.012520758074353626
aF0.0057937080854875561
aF0.0076963919669497394
aF0.01168353385374804
aF0.029555165532985997
aF0.0063166669205402199
aF0.014458737186830961
aF0.011044388355093627
aF0.02001744086271218
aF0.011535649473638296
aF0.021502569992106417
aF0.0042307195432128098
aF0.0098422780656813626
aF0.0056402072253421412
aF0.0085605710630661455
aa(lp68
F-0.032673071292266445
aF-0.027521412321322818
aF-0.034019033858929786
aF-0.028812063246092128
aF-0.015580733451794459
aF-0.024582226063380182
aF-0.01849346302941695
aF-0.020604072898348369
aF-0.030473556415778195
aF-0.028752391921270257
aF-0.021983086381384208
aF-0.022473522371466943
aF-0.019824194430188163
aF-0.023490292480543212
aF-0.025389285906806992
aF-0.022276199090944582
aF-0.020022695545582069
aF-0.025443973516981373
aF-0.0089601635992454052
aF-0.0079400877878283739
aF-0.035406388747440135
aF-0.028228114786012951
aF-0.021607989723523117
aF-0.029568060693222726
aF-0.025676090975658043
aF-0.016627935923296467
aF-0.018455118433644828
aF-0.023375240994472274
aF-0.021976189402874054
aF-0.019520335548793958
aF-0.024844954665337766
aF-0.016029143152489357
aF-0.016268129503373085
aF-0.012856528950613899
aF-0.013244286997478115
aF-0.0087208737972786325
aF-0.021074114939564501
aF-0.0034777779855931987
aF-0.008676007247450792
aF-0.020366091631033301
aF-0.01124451953587206
aF-0.020931252976178143
aF-0.018620148911076894
aF-0.011918495578929274
aF-0.0076891772816424708
aF-0.0075306664730041585
aF-0.020588551554584018
aF-0.0067705287998692104
aF-0.009754672902960785
aF-0.0035398205286427623
aF-0.025307005302076503
aF-0.023791067235374518
aF-0.012943204382540428
aF-0.0057774109551069755
aF-0.011950164339316774
aF-0.0080979520572075359
aF-0.018457362592211628
aF-0.011955946427847267
aF-0.021424207170970072
aF-0.013287893794096403
aF-0.0085615676387617769
aF-0.010324342984465957
aF-0.0139239729978305
aF-0.004732915765647684
aF-0.0070473974368273438
aF-0.0090974679641100085
aF-0.014991183801818247
aF-0.019394658116577566
aF-0.0034534105073311099
aF-0.0099555238389021205
aF-0.014344533052392501
aF-0.012352386993007733
aF-0.015289063101683726
aF-0.017977548172114759
aF-0.016108060029576755
aF-0.0081441579920987252
aF-0.015581720159357423
aF-0.016894529427985059
aF-0.0033431189476943171
aF-0.021507129597426369
aF-0.0213013141129485
aF-0.0023406495359117479
aF-0.013545446921795604
aF-0.013042740200042185
aF-0.013268801616320356
aF-0.010205486117704776
aF-0.020082857167837826
aF-0.012125776972748793
aF-0.01377771882079192
aF-0.018697994059581762
aF-0.019195452311886595
aF-0.013047409850651687
aF-0.011060122906140731
aF-0.02013345711937382
aF-0.0041157134061302145
aF-0.018957434794897192
aF-0.0026035865646009235
aF-0.0014516635578521969
aF-0.017649519445456764
aF-0.011932410891074224
aF-0.0037793424867756048
aa(lp69
F0.018325485202473794
aF0.021974538147851101
aF0.019666969060354478
aF0.010266086904866023
aF0.021008702310090454
aF0.0070209059874886907
aF0.0077509242549772782
aF0.010598986543753552
aF0.010494621231648595
aF0.010571052288992631
aF0.027644810617831039
aF0.014666069287834815
aF0.015096916495226542
aF0.011900329279573556
aF0.022742443473074907
aF0.022145886125139728
aF0.01121938554641224
aF0.0034090419825904298
aF0.013702953884783415
aF0.022185762625385286
aF0.026588600467303315
aF0.0029547955249658499
aF-0.0027194497235528354
aF0.0078516189357984954
aF0.0021199321502023143
aF0.01503469543883393
aF0.0010077275862209311
aF0.0087154378027217792
aF5.7954392095800619e-05
aF0.012564826654536196
aF0.026436581130581158
aF0.014049523725516965
aF0.02348061076357761
aF0.021084776679572068
aF0.015697018021273837
aF0.014366689708610141
aF0.0088476139683068677
aF0.018890412584773055
aF0.01994917237049686
aF0.022156798656000835
aF0.039594584898005068
aF0.034325761703227459
aF0.02081263305458805
aF0.024357850372029949
aF0.023052221155048201
aF0.026304885298505554
aF0.027756263417210159
aF0.019425601494976519
aF0.011479835978713817
aF0.01146614606037682
aF0.030328034213823879
aF0.023519091222339271
aF0.0075419229225868649
aF0.018481381131601114
aF0.015730513393716519
aF0.013412680226380981
aF0.015514016920163201
aF0.016505211007119148
aF0.008561729112664283
aF0.010114777173963366
aF0.02595353760741867
aF0.014980964928672893
aF0.0051078811729554276
aF0.016777070764541931
aF0.015961945512077202
aF0.016704324173376202
aF0.016366133956715802
aF-0.00029923904455496944
aF0.0063818785448416663
aF0.0093411738156124139
aF0.0233985027866754
aF0.0021438598233813801
aF0.010970929347415091
aF0.0038822502245796607
aF0.01117486055742402
aF0.0091391898456070399
aF0.011105650636201444
aF0.0093512329665784676
aF0.016846495776393067
aF0.017399264758834448
aF0.024229574261142538
aF0.0062004464412742299
aF0.0043915579338368758
aF0.0053783339716828651
aF0.0092947336707878726
aF0.0040527417012741563
aF0.0090724087171888245
aF0.0023815904225395782
aF0.019266330055508481
aF0.012881825159423229
aF0.011546692000082869
aF0.0025281025661279045
aF0.013328575277273649
aF0.010860820363256682
aF0.0045256663547506727
aF0.0037538080946093585
aF0.009844237921129673
aF0.01534225119818943
aF0.0084679777669578789
aF0.020051925986664564
aF-0.0025952890851178708
aa(lp70
F-0.081565011853769936
aF-0.072227332942813485
aF-0.063020968770233846
aF-0.063101986107352306
aF-0.053015840010589885
aF-0.06164958584185988
aF-0.063656841183783605
aF-0.048478476910228559
aF-0.053715143905521713
aF-0.066615354062389012
aF-0.078491008240154675
aF-0.06337758457363056
aF-0.07048149222410266
aF-0.067480028438767797
aF-0.04631681102134512
aF-0.04532365831512021
aF-0.056144261903547502
aF-0.057644524055113562
aF-0.056091437582783593
aF-0.045753268495466681
aF-0.075058502127014412
aF-0.053187224519323992
aF-0.041929933671843153
aF-0.037040718636900831
aF-0.04577973612882217
aF-0.04126232004855996
aF-0.050575076719037763
aF-0.046039378641756334
aF-0.03619638804932359
aF-0.0531909226897384
aF-0.055758217802889247
aF-0.04389418687252146
aF-0.038767187498263689
aF-0.031809978794415723
aF-0.024686629222151913
aF-0.014432984137512799
aF-0.017330871862483634
aF-0.023310730424079117
aF-0.020373290224958658
aF-0.032634388359795583
aF-0.055075166851641329
aF-0.029603556790236497
aF-0.032670910682759818
aF-0.021663219765594405
aF-0.016098120017661959
aF-0.033969171020733387
aF-0.017295167244569278
aF-0.017113562330930809
aF-0.020136755207770807
aF-0.020324847048541962
aF-0.054207385802956171
aF-0.039617685616209028
aF-0.021997579122058099
aF-0.020611021092790938
aF-0.03351010967457449
aF-0.02198544841832949
aF-0.030784271186292664
aF-0.03049830764753559
aF-0.018624947205000665
aF-0.023671302445090747
aF-0.052513523263603278
aF-0.019114359391763085
aF-0.026529818993798554
aF-0.019773937393994703
aF-0.030921022123949767
aF-0.025709883431893191
aF-0.036048598695755885
aF-0.021823490231338217
aF-0.02404341949123227
aF-0.028606401423150872
aF-0.039641217014479008
aF-0.032225264811888921
aF-0.034656910898754466
aF-0.031116169996332373
aF-0.016721330262517022
aF-0.027991735974094864
aF-0.029981950112111206
aF-0.031581021711661279
aF-0.0233968195416232
aF-0.024226667257960958
aF-0.04964774181177091
aF-0.024655532090307533
aF-0.034785979614295283
aF-0.022294506429209902
aF-0.033187405946223894
aF-0.026066627739329946
aF-0.027986356973044309
aF-0.024615125555288112
aF-0.019623896395062033
aF-0.036664712160695917
aF-0.04708548167275773
aF-0.033634350536533006
aF-0.023206581188330071
aF-0.027648293423165455
aF-0.026540850080492444
aF-0.026125373713153315
aF-0.018689799448568266
aF-0.029701852398253053
aF-0.031202977379255405
aF-0.025624598688811433
aF-0.00078183320560338047
aa(lp71
F-0.015280172411042797
aF-0.022175568128144172
aF-0.011204047469815483
aF-0.0097952064667203003
aF-0.023258010050924767
aF-0.023330999982644367
aF-0.012807838304078334
aF-0.0167418668862204
aF-0.023115926393349733
aF-0.024009077164555206
aF-0.02063661578797344
aF-0.020376160471220262
aF-0.010993319169703598
aF-0.0088872387615703402
aF-0.01706478254705782
aF-0.002651079608397488
aF-0.0077140384917049878
aF-0.017174279747218441
aF-0.017360276126283426
aF-0.01457098709996151
aF-0.02064800868020682
aF-0.013730233543807023
aF-0.016123711459885635
aF-0.015896498044638097
aF-0.0074875686950017228
aF-0.020948009168493646
aF-0.012250611607799698
aF-0.019790198557775546
aF-0.016769692295424934
aF-0.0075872471088882891
aF-0.016381921330049575
aF-0.02197203030447073
aF-0.013755266585280994
aF-0.010778470012421435
aF-0.013364302040135195
aF8.2666815467239373e-05
aF-0.012744920443469435
aF-0.0045886947503294929
aF-0.0043837635548713786
aF-0.0073009389150329191
aF-0.0204407698261054
aF0.0006817257082524003
aF-0.011048747761623044
aF-0.016398112340705349
aF-0.0092364618397706207
aF-0.0068320663973016034
aF-0.0097051662929971815
aF-0.0048381623600247106
aF-0.0055457113792026658
aF-0.012201162744332085
aF-0.016399607799146246
aF-0.011475067692051004
aF-0.011700957177727083
aF-0.015615592664372605
aF-0.010184248193030612
aF-0.0093081010338990251
aF-0.0056246649179635061
aF-0.016068431404057129
aF-0.015821613695907902
aF-0.0061601568430182897
aF-0.012897515874328953
aF-0.0030399588435851199
aF0.00064046549609020678
aF-0.0042021049287691726
aF-0.0025967819190410428
aF-0.0093189933114071841
aF-0.01570573278253511
aF-0.0032743898951793022
aF-0.013950384415076589
aF-0.0075727551903229766
aF-0.0049112573841262495
aF-0.010379385005771595
aF-0.0002149953762968939
aF-0.0063098558089677683
aF-0.010044917767678562
aF-0.011897437226118782
aF-0.003205115928724822
aF-0.012577842090044936
aF0.00043005731741521045
aF-0.010953962188096878
aF-0.011893078073770463
aF-0.0083868891012977703
aF-0.0060721224822345068
aF-0.016445666597292692
aF-0.015339222686387691
aF0.0025815622807270496
aF-0.0066126939058702133
aF-0.010772251093203289
aF-0.013207718690884215
aF0.0020253585502451373
aF-0.019268216623032623
aF-0.0059650195235596724
aF0.0023695221384966007
aF0.0019921716261114735
aF-0.00035083059187401584
aF-0.011543679631489291
aF-0.01267529525487388
aF-0.012354867907670113
aF-0.013268067920757942
aF-0.0048565376840216294
aF-0.0098017416649424337
aa(lp72
F0.073108199031113624
aF0.055181186741470746
aF0.044788904188484649
aF0.052765352585446672
aF0.045534900810393859
aF0.047266235835704731
aF0.053963112431130597
aF0.04753168875382812
aF0.046049686177347199
aF0.047945898636469475
aF0.072692311627105946
aF0.043753585411152998
aF0.037000689460904658
aF0.036761182918893805
aF0.043511075588162515
aF0.030525438223483487
aF0.036308761419850469
aF0.032856800721660376
aF0.03750045964795401
aF0.033847818784717994
aF0.059992194998816119
aF0.043593257654418897
aF0.042394808337579845
aF0.027806476515353486
aF0.038422469448387869
aF0.034764023631224904
aF0.03245926558793847
aF0.026392172179268054
aF0.033724020684245556
aF0.027409345445957391
aF0.070597202932035474
aF0.066732532107218204
aF0.056600230777031711
aF0.0559832379926661
aF0.041068100450385323
aF0.046151976587699754
aF0.037379006486735408
aF0.053848352414615129
aF0.053937966268600715
aF0.049204717151455642
aF0.068186790543083547
aF0.056657280925733182
aF0.050645058741957301
aF0.045197329775906743
aF0.046998352850845207
aF0.036626623956629051
aF0.04526665277080525
aF0.030923975940185235
aF0.047436051949006686
aF0.040356921397422092
aF0.053045733566099346
aF0.018643058286292903
aF0.02771273658766657
aF0.021844788000246394
aF0.018398595778170872
aF0.017380635997898027
aF0.029253986793768616
aF0.016945194726985621
aF0.026617569991526962
aF0.031109681268916098
aF0.045552896056008027
aF0.03893726402452663
aF0.025062891507355606
aF0.036940919655482539
aF0.024659488943730722
aF0.015805654511933803
aF0.026083210555236765
aF0.028625853987788715
aF0.029444396681267339
aF0.020620994681254463
aF0.036312092540897546
aF0.019645880831692362
aF0.028030501578418767
aF0.03607605168722907
aF0.019065130378641257
aF0.026265432732359324
aF0.023551806865101554
aF0.020864124144988748
aF0.033492372872415188
aF0.037130303717388784
aF0.048822339109344352
aF0.024225700573865475
aF0.027062271795284899
aF0.01805893434431214
aF0.028353504975056856
aF0.033639739273790326
aF0.028276087009554054
aF0.026150827132259136
aF0.023572172828826458
aF0.034296161380107743
aF0.04267135849671673
aF0.032736571552438441
aF0.028294226940127669
aF0.032357249519448295
aF0.032734927141106068
aF0.02069982737317403
aF0.028470161276887333
aF0.017467843702045759
aF0.030336004866580408
aF0.024437644996343068
aF-0.002129601691987849
aa(lp73
F0.13891957125836576
aF0.12086913213200615
aF0.10293688487955299
aF0.091125821857036604
aF0.088448048095594728
aF0.079978804652050262
aF0.078034637477197188
aF0.078016757995152883
aF0.087924599871777837
aF0.077127873967111293
aF0.15918714843197043
aF0.13059771972245279
aF0.11594911448097071
aF0.11469832808851108
aF0.092460466712472475
aF0.088922260752485729
aF0.085540140613633672
aF0.089511029913009701
aF0.094625260121451615
aF0.084315638284013436
aF0.14297189713647873
aF0.093484946540029118
aF0.071087837955775321
aF0.082568443956791249
aF0.069129917494063137
aF0.063878827659594739
aF0.069017107443364104
aF0.062038886914334457
aF0.079043012400737175
aF0.076551518300527852
aF0.14611384640535643
aF0.11392235136937984
aF0.091708499474786237
aF0.0913741907531921
aF0.095020847166475284
aF0.086600226814631406
aF0.083553687732245904
aF0.081465848994800652
aF0.082610579031902512
aF0.083334686936329741
aF0.099205743224122872
aF0.066142893702061376
aF0.047791317145493138
aF0.056155576178720586
aF0.044767894847553863
aF0.053861495757566408
aF0.046058038048176417
aF0.04855459547106282
aF0.056733507036702331
aF0.050188561329815196
aF0.066773016717878234
aF0.050182180846771986
aF0.049695887195009253
aF0.051626322739549861
aF0.049840347656639167
aF0.0501859786780098
aF0.044227883772494009
aF0.049334594069732382
aF0.049043069719889899
aF0.046686820186089509
aF0.067681275932306897
aF0.059104463783221463
aF0.058740411278459539
aF0.053156201419710176
aF0.038211866637010386
aF0.037766681368615676
aF0.043347120797733993
aF0.052385314786221056
aF0.042089036710300398
aF0.046012008350610756
aF0.076667576585402186
aF0.045812094228799262
aF0.047715514341637164
aF0.056986889274427799
aF0.051262060592222082
aF0.04171624405957098
aF0.041255987842334557
aF0.050613760568417862
aF0.058313013103691157
aF0.061212892789116208
aF0.079053523247590379
aF0.054005519317817774
aF0.045590435947432034
aF0.045925420896005292
aF0.039096280577068834
aF0.052051717704250287
aF0.049335687528115055
aF0.038448070520479889
aF0.054564602178454984
aF0.048630726636043647
aF0.075809752979460243
aF0.044254818951482165
aF0.048126651560714218
aF0.042778213256479215
aF0.047845882490404563
aF0.053078669885597944
aF0.038141173488563343
aF0.056850499150704295
aF0.057648646322824973
aF0.050457941144132344
aF0.013795878194260683
aa(lp74
F0.479894655845366
aF0.36434664747729179
aF0.32664276666867309
aF0.33203597909691035
aF0.31272567259379991
aF0.31004107070981468
aF0.30416106115228309
aF0.30339699325699443
aF0.33061949369456695
aF0.33182218642406319
aF0.48576845281123854
aF0.35878279814575437
aF0.32683478954494133
aF0.30300227534845714
aF0.30773401920096766
aF0.30043726707833157
aF0.30476294620340766
aF0.3039932329520631
aF0.30675201260976781
aF0.3044094437278464
aF0.45246272330903348
aF0.34871573429120528
aF0.29248026771491931
aF0.26407410771431872
aF0.27994845107460858
aF0.27489179987607099
aF0.25528991437086046
aF0.25308487577673644
aF0.28542938065929868
aF0.2835793368806992
aF0.44876214079882065
aF0.3492413296091546
aF0.28242993537993816
aF0.25673617281845235
aF0.25048021974400753
aF0.22809265127556499
aF0.22748672697528291
aF0.24329881022982067
aF0.25261214943507726
aF0.2635495904385351
aF0.48642371737910556
aF0.41315294749719195
aF0.33168245918160394
aF0.30518076270906913
aF0.31989146819451225
aF0.30171155363833574
aF0.27934531206520696
aF0.2694298117866426
aF0.28285058785308337
aF0.28469772462077297
aF0.3286445221005494
aF0.26817783147336038
aF0.1789540688810636
aF0.18374838348324909
aF0.19926841714946411
aF0.17705873350180731
aF0.15783734352202075
aF0.18690154842134499
aF0.1702615057412401
aF0.19300645518276147
aF0.24443766160069147
aF0.16903556803214265
aF0.16598881006122826
aF0.18112829313391318
aF0.15135784269001668
aF0.14317552186754259
aF0.16411754975503792
aF0.16460363249537968
aF0.15447606215278153
aF0.17966169371367541
aF0.24159410283221736
aF0.167583661709238
aF0.16477604365946272
aF0.16562481952185731
aF0.17430607538457799
aF0.15104145721213708
aF0.16417332938488097
aF0.14748975355354835
aF0.16834437151390105
aF0.16906024855558063
aF0.25109624702488109
aF0.15688646999012465
aF0.14894682099554407
aF0.16594976232795305
aF0.15953238845420251
aF0.15706501480297202
aF0.14991078587377174
aF0.16285634589044043
aF0.17383469484969452
aF0.17172708823533711
aF0.25178139999525795
aF0.16512686425532191
aF0.15793601310230249
aF0.16158606253311633
aF0.15056934323838855
aF0.16085151806697334
aF0.16200347325638845
aF0.16092249000241876
aF0.167336296086433
aF0.15544732726283469
aF0.022082857011273466
aa(lp75
F-0.012136155822100553
aF-0.0074794155687650035
aF-0.010917629153113541
aF-0.014528436608151101
aF-0.0061963548662524138
aF-0.010901460399728904
aF-0.015141456321099993
aF-0.0069067529383043374
aF-0.017411454849384448
aF-0.0034221613845682622
aF-0.019487603925227675
aF-0.019434628822562208
aF-0.003759504895314418
aF-0.012035101214219681
aF-0.0082338571479425183
aF-0.0046477540286197338
aF-0.014563295995087497
aF-0.016436634717045276
aF-0.018468657531659296
aF-0.010400739804977462
aF-0.023796298468754157
aF-0.01124511430672097
aF-0.0085505199641902185
aF-0.0075148611877923982
aF-0.020648730909941428
aF-0.0036950439794346673
aF-0.0046573511407536983
aF-0.0048883874838558721
aF-0.010970052010639298
aF-0.0068204468571967389
aF-0.021861849316228327
aF-0.00259127813902197
aF-0.016933450928571334
aF-0.019073653868647029
aF-0.015962403862515059
aF-0.017080365383772656
aF-0.012968577937579412
aF-0.00023874635846162683
aF-0.0095580836961975599
aF-0.011965962405783327
aF-0.013214651719309784
aF-0.0030760932149158709
aF-0.00014972572682430576
aF-0.01305625549475449
aF-0.012391741108827851
aF-0.0022636661226065886
aF0.0018969546966970483
aF-0.0067060928148705854
aF-0.015057366894877093
aF-0.011224868707464997
aF-0.019983774914616795
aF-0.016588018435694386
aF-0.0098971620062007545
aF-0.01377792604271987
aF-0.011098526207287207
aF0.0029097542823653092
aF-0.0020642540938921958
aF0.0024295958570393584
aF0.0025998137591633427
aF-0.01584749885258363
aF-0.013584728796902016
aF-0.014066839003932427
aF-0.014489160602578585
aF-0.0078859483567339447
aF-0.0051536031214744699
aF-0.012916229488420757
aF-0.0023080713985598245
aF-0.011268476699546342
aF-0.0058581275047619548
aF-0.013193619383839936
aF-0.0026800383845194571
aF-0.0084480434838215442
aF-0.0024028009784724629
aF-0.0060546462216588973
aF-0.00083380630669750971
aF-0.011663213607739028
aF0.0017770149619854853
aF-0.010173272894479118
aF-0.0029439804180140076
aF-0.015723910885365996
aF-0.016474195361586359
aF-0.008518567016345879
aF-0.004623995509109087
aF-0.0094615628064527533
aF-0.0041044461230885423
aF-0.016104001369938396
aF-0.013279189952163277
aF-0.0039438836365067297
aF-0.009423156519666475
aF-0.016669121633596726
aF-0.0054918708457155404
aF-0.011267497941216108
aF-0.016436827267647249
aF-0.0066181816993378956
aF-0.013805420244339213
aF-0.015123267143605046
aF-0.0082654684274198944
aF-0.0022899550131077438
aF-0.011252181243881018
aF-0.0057243640374760006
aF-0.0067570755649837078
aa(lp76
F0.38782554563258526
aF0.27398223343663053
aF0.25829152843973097
aF0.22743402908808177
aF0.23464115997296195
aF0.22936586208276202
aF0.20752807493076567
aF0.22620255477578546
aF0.20895368942260006
aF0.21662422808098156
aF0.39685764753552566
aF0.32100865587332128
aF0.28619970366365721
aF0.27505392478882623
aF0.25973256937097644
aF0.25304147642197744
aF0.26237263205678918
aF0.24791675397658017
aF0.24208063244049216
aF0.24393800815946967
aF0.38181501291656328
aF0.29121301160412749
aF0.25664198878157329
aF0.24711000382517107
aF0.23608805072007044
aF0.2160179411185835
aF0.22280305898542993
aF0.21113660605860921
aF0.21365761228156421
aF0.22782437914456011
aF0.35313032509555242
aF0.26354962575626989
aF0.21812405713854385
aF0.2061399315996536
aF0.18426369321381036
aF0.18627936627125583
aF0.18189985802906355
aF0.18266725683715759
aF0.18760788900602909
aF0.19221700443628015
aF0.31052431501540312
aF0.26225054931089609
aF0.20141483760880693
aF0.19748120872941496
aF0.20502771137640613
aF0.16902848012678251
aF0.17853030807916986
aF0.17711971876248669
aF0.16571338989670106
aF0.18160391740336423
aF0.19613790457631253
aF0.13171909624843697
aF0.12735644007907582
aF0.1382504709703431
aF0.13074105189023061
aF0.12510610332385036
aF0.1268159009001541
aF0.1167830166435477
aF0.12758020400444822
aF0.13122586440428191
aF0.22030273951555007
aF0.15404536450241385
aF0.12828272029815582
aF0.13615172474154336
aF0.1290921244557999
aF0.12162807900028577
aF0.12772866144487999
aF0.13359795824400308
aF0.13533750451183701
aF0.14027959770074688
aF0.19480453545450332
aF0.1180283212329985
aF0.11535352040205074
aF0.13292164975472048
aF0.11462153192209555
aF0.11392097152503874
aF0.11347381412503092
aF0.12707986372261351
aF0.12199709038605921
aF0.12974959233000982
aF0.19084093662410703
aF0.11915068935037561
aF0.12660324733433995
aF0.11462438163700422
aF0.12959470862054917
aF0.11733025188245014
aF0.12637561460653779
aF0.12640105090299711
aF0.12577208960887437
aF0.1405794818849746
aF0.19265173642627675
aF0.12853806342957796
aF0.12326657700456846
aF0.12100629350882895
aF0.11633790759211488
aF0.11406172613502792
aF0.1260368767443365
aF0.12671128890130465
aF0.1244548954133602
aF0.1417804649898711
aF0.0037192456561721248
aa(lp77
F-0.034838753646587478
aF-0.033171687813094076
aF-0.029261865545893141
aF-0.023152373580844723
aF-0.028735940090656727
aF-0.031256548819870653
aF-0.01892875168095022
aF-0.029143366112699489
aF-0.026811833583639734
aF-0.01932993522901395
aF-0.037704060627799386
aF-0.019283683731717186
aF-0.010891069222579481
aF-0.015015694366195207
aF-0.017509907039546711
aF-0.017839150402522593
aF-0.0126157757107018
aF-0.011200797706154604
aF-0.008747569951075505
aF-0.016474884475013673
aF-0.033128558475770696
aF-0.017204739638261288
aF-0.027880323338893322
aF-0.016665328603747757
aF-0.024250728159226589
aF-0.016995236652449282
aF-0.02490249695532272
aF-0.016966966300382587
aF-0.026928625031804879
aF-0.013856140523689912
aF-0.023209576592379849
aF-0.028221550733986103
aF-0.01594609615858332
aF-0.0077763902132376465
aF-0.0087512046658707737
aF-0.0045990339999427031
aF-0.0084200520932753552
aF-0.019784957193135236
aF-0.0084742113174090961
aF-0.020570330555057473
aF-0.014012171410074921
aF-0.0056889620662143644
aF-0.01105477400500615
aF-0.013849995067878351
aF-0.013030552824585626
aF-0.00080799084336854543
aF-0.0057731208773065161
aF-0.01546688625304888
aF-0.0072472056025215982
aF-0.018390797321261015
aF-0.027319142793823289
aF-0.0070147346921356352
aF-0.01731119338548472
aF-0.021318958183683904
aF-0.0079710667928880215
aF-0.0034584495014193637
aF-0.017471632197704794
aF-0.0079392803718986733
aF-0.019594347307016133
aF-0.013353323095488203
aF-0.016508581520403628
aF-0.0089519726667264318
aF-0.011447920461958807
aF-0.0046624313165388983
aF-0.01169486854005263
aF-0.0047305918242085037
aF-0.01073645292015434
aF-0.0029802286581519987
aF-0.0092680935296273938
aF-0.0076338767021220614
aF-0.02216387738376999
aF-0.020341381356227772
aF-0.014349494129334069
aF-0.0047238422788870357
aF-0.010367660504302463
aF-0.017315017807034958
aF-0.010219726367234495
aF-0.018593515424732469
aF-0.012344508644497933
aF-0.010294314145193552
aF-0.016779732329802174
aF-0.01515998137468293
aF-0.01349099249795891
aF-0.015025767834814706
aF-0.010633787445422689
aF-0.011641966425945017
aF-0.011384609328199138
aF-0.0091042145902314499
aF-0.0011705171027900682
aF-0.0064949545057291806
aF-0.0076268637489574588
aF-0.010047823437694196
aF-0.01054928316725416
aF-0.0070824327889300242
aF-0.0092878424886818044
aF-0.012982402438921903
aF-0.0030742841300426169
aF-0.011656846288843269
aF-0.020191107250558057
aF-0.014163745284501225
aF-0.010985666293119619
aa(lp78
F-0.023753374868657886
aF-0.024551893484472152
aF-0.022032902269401685
aF-0.01655899098184184
aF-0.028235119298880708
aF-0.029488639115714765
aF-0.029856284613117408
aF-0.018476042810165023
aF-0.015690286659441947
aF-0.03111822941090224
aF-0.020561250249826184
aF-0.029592979259249436
aF-0.014174731940608478
aF-0.014548365262241637
aF-0.014944220696265236
aF-0.0093950054822840266
aF-0.0061145362721551806
aF-0.0095253000872734805
aF-0.012346959053492774
aF-0.022712362373682023
aF-0.031024047778857713
aF-0.033671217741520647
aF-0.016639019043872726
aF-0.029693758430993009
aF-0.014062961283229211
aF-0.027373131223987011
aF-0.0084436413306380794
aF-0.011206709979792413
aF-0.023214424232433837
aF-0.012747384756211311
aF-0.023141719367193846
aF-0.0301866170755179
aF-0.021378253899658872
aF-0.012314639612257186
aF-0.010309853548706258
aF-0.0074300000585288267
aF-0.013939610338096485
aF-0.017050556179518811
aF-0.007117977155036777
aF-0.0049669570820317791
aF-0.023094753207106321
aF-0.0066955128339197603
aF-0.0050165761306848978
aF-0.016472340914707416
aF-0.0049140055802631205
aF-0.0087024255273965723
aF-0.01521901158838544
aF-0.014968490738681344
aF-0.001764216606896544
aF-0.014157635775625562
aF-0.021684401530575704
aF-0.019540968213171264
aF-0.0085736201443014602
aF-0.016976271358522435
aF-0.019072335149347506
aF-0.01282456859575336
aF-0.018498762983660995
aF-0.0056519412528794333
aF-0.0042146518591709738
aF-0.0069539986991203409
aF-0.021180156505663638
aF-0.0079001853707003269
aF-0.012423730081736755
aF-0.012382000300708929
aF-0.011586044106913147
aF-0.018054444970566592
aF-0.018653683832384124
aF-0.010420248226977629
aF-0.017879157444815684
aF-0.0051529465080939231
aF-0.018023613991490866
aF-0.010795299466626872
aF-0.00010708339313876386
aF-0.013859277120924121
aF-0.0040288294559506161
aF-0.0066791618972086965
aF-0.016878629315104664
aF-0.013247157920286546
aF-0.0065248408774054812
aF-0.015282797575667539
aF-0.025565561804631154
aF-0.0026771965538608011
aF-0.0016656478398039578
aF-0.013756247705901016
aF-0.0079773096331829229
aF-0.011200427127350889
aF-0.017123679428144804
aF-0.00039004603077659038
aF-0.0056907437865998806
aF-0.0033122804370705238
aF-0.01124255101965016
aF-0.0068920194476210254
aF-0.016826800178769603
aF-0.012817217672269239
aF-0.0098070009311571373
aF-0.0041996139907043047
aF-0.0090494992480610048
aF-0.0086825912249492761
aF-0.019879511147303731
aF-0.019225477183741131
aF0.0031417714931207441
aa(lp79
F-0.016823929571582654
aF-0.019489052151701786
aF-0.0068561243244093552
aF-0.011749394104752071
aF-0.018493128792600694
aF-0.014013074138223178
aF-0.011030830457494816
aF-0.022994672519398917
aF-0.016156778887705277
aF-0.015546989165496235
aF-0.022227316025154525
aF-0.01475994551791464
aF-0.015662264160272124
aF-0.011813168228480763
aF-0.019294871466144264
aF-0.0077564671639077376
aF-0.019161390482146583
aF-0.0078008274285566916
aF-0.019432571403255827
aF-0.015716707541398423
aF-0.026579803610216488
aF-0.024032652093629182
aF-0.013139758270169482
aF-0.013669989652318313
aF-0.019192382512775545
aF-0.010537775233398456
aF-0.0027145323918416654
aF-0.011362443791680299
aF-0.01811614410562027
aF-0.0088492008790981534
aF-0.0084383121930556287
aF-0.0045979311525407816
aF-0.013195874185141834
aF-0.0063344760941732112
aF-0.0085118848413870043
aF-0.014452154705027176
aF-0.0083217499508602411
aF-0.0013047598173790524
aF0.0005874296684400237
aF-0.0084286036698283228
aF-0.015748217060671067
aF-0.0094187021090754129
aF-0.0057189535767848253
aF-0.017357662050934811
aF-0.0020048326042823761
aF-0.0093335945730448049
aF-0.0016054079836006587
aF-0.010424814960298187
aF-0.016241742975969316
aF-0.0014260338375123073
aF-0.01403082953749815
aF-0.0015645882990040539
aF-0.0019103663361028766
aF-0.01133074467306544
aF-0.004291638124489577
aF-0.0099512951134785449
aF-0.005286954975414775
aF0.0023314924838951376
aF-0.0043380358989152396
aF-0.013884058813603968
aF-0.019760150445815795
aF-0.0011927299821373324
aF-0.011436153844153477
aF-0.012298534662596162
aF-0.011246105538291608
aF-0.016002058284552905
aF-0.0063191620904117186
aF-0.0017572782956514139
aF-0.015429293400699262
aF-0.015730720287148395
aF-0.0077990751645641869
aF-0.0087763278791066941
aF-0.0058771974617862731
aF-0.00042623270855331202
aF0.00014000964631024482
aF-0.016190054842242774
aF-0.0097561735071924529
aF-0.005919059232840326
aF-0.001896867278998481
aF-0.014212326396322734
aF-0.0057208280779851607
aF-0.011570230261763197
aF-0.012016279002636953
aF-0.014998463879402976
aF-0.011922818757282938
aF0.0016944974555073739
aF-0.014615012303401082
aF0.00010276506315078329
aF-0.0068926438456316285
aF-0.0046228155689355789
aF-0.0079530262829306531
aF-0.010386108665757414
aF0.00082553774764368936
aF-0.0011064129921595062
aF0.00061688257967254978
aF-0.014797315677921655
aF-0.0089896940097975199
aF-0.0097341629004926936
aF-0.014947458895234361
aF-0.017085179639372547
aF-0.0072991275242061046
aa(lp80
F-0.029006604026168989
aF-0.016462336108774234
aF-0.019094591234468081
aF-0.019193637267007974
aF-0.012003525361568294
aF-0.012425632185801111
aF-0.011525593268790045
aF-0.0080617576796816314
aF-0.0097746296338711049
aF-0.021524483535284585
aF-0.020717216517037604
aF-0.014740086453412271
aF-0.011487393349056744
aF-0.011587088287872251
aF-0.0047747289336135049
aF-0.0074884424176886264
aF-0.0099723029242046683
aF-0.0075400728005971399
aF-0.0072114666521660804
aF-0.0052335269895810131
aF-0.020111106068782476
aF-0.015482735537096354
aF-0.016105301733393369
aF-0.012986581633727153
aF-0.019751826438483191
aF-0.014135921682953557
aF-0.019877766848557209
aF-0.018615088214445335
aF-0.0091739394581224973
aF-0.021987693337206238
aF-0.013188742493963294
aF-0.014395165249173419
aF-0.020953178738573195
aF-0.0045032718601494565
aF-0.0076800209072856503
aF-0.0056511702161455863
aF-0.013198121634816389
aF-0.016043493795578467
aF-0.0017843196601506392
aF-0.014366345898834683
aF-0.0049953474057740374
aF-0.0069020592091953584
aF0.0015871992052502624
aF-0.0013029132338496956
aF-0.015828371824647226
aF0.0012514501138045123
aF-0.0025923406215067049
aF-0.0043573268028901319
aF-0.00949423646150796
aF-0.00067353239312444653
aF-0.013020258614799642
aF-0.0038602447568253256
aF-0.018477943842959269
aF-0.0011102590520460872
aF-0.018470558996159514
aF-0.001147035064016178
aF-0.016285896534078609
aF0.00079936641445402939
aF-0.012412517235780855
aF-0.010421033289853053
aF-0.017371896727176414
aF-0.0091577867340613406
aF-0.0058128041208493708
aF-0.010719773143923255
aF-0.007466154409390839
aF-0.017479899493557126
aF-0.0088804929146019569
aF-0.0029528685909601701
aF-0.011736660396028623
aF-0.0024797603190551917
aF-0.014256856443501798
aF0.00044137165318089259
aF-0.011761874095725251
aF-0.0060777797977723813
aF-0.0040256097712631049
aF-0.014313373730453716
aF-0.007744563923849996
aF-0.0010960260042946624
aF-0.0098210663762978694
aF-0.0027988164246077899
aF-0.021386900973100118
aF-0.0015352586618481068
aF-0.012034846239394291
aF-0.014062197066603513
aF0.0010605222780711036
aF-0.001207558042499277
aF-0.0090762612562171469
aF-0.00090797070248925093
aF0.00021030744664751904
aF-0.001498840964797352
aF-0.01782305495190491
aF-0.0065361667319425243
aF-0.015761534179293709
aF-0.015832415109786516
aF-0.0023726716714890226
aF-0.006624972018402459
aF-0.0012976040935674044
aF-0.013877565381921831
aF-0.0071318549048370872
aF-0.01347625106494665
aF-0.0035071729408112169
aa(lp81
F0.022081514997635866
aF0.019327962620619431
aF0.019597677960943641
aF0.023581392635377209
aF0.02608757829612364
aF0.006976335144194803
aF0.025251282237521825
aF0.013437404194612347
aF0.019516804150459491
aF0.01790268153589606
aF0.034832119374275536
aF0.02692425377075764
aF0.033088720262383249
aF0.018611775182496106
aF0.019272860351665515
aF0.025714773282311105
aF0.023629489986338688
aF0.029004607822558256
aF0.024281172264707041
aF0.01613966173743088
aF0.038694780672231741
aF0.025975985922369924
aF0.011105283219489007
aF0.026654129968428031
aF0.013924657401411761
aF0.0114544927919669
aF0.025385816486762223
aF0.026396745643008486
aF0.019320359304231174
aF0.022943788583405542
aF0.044400938171739193
aF0.026754105427442883
aF0.023093608384652426
aF0.022723005622930382
aF0.020575200850284928
aF0.033573497606445374
aF0.025930624484202618
aF0.033336016761989419
aF0.024368801222623845
aF0.032224395267420262
aF0.04596936200895748
aF0.042284469017164573
aF0.025767224059190266
aF0.031656967526664838
aF0.031856919016888391
aF0.023341912251171233
aF0.019979471740042665
aF0.030833391835333443
aF0.01840699410704048
aF0.018314991878559304
aF0.029619003092738936
aF0.016815294329875795
aF0.012086625862979422
aF0.026405000044494701
aF0.023247227436948945
aF0.020418676156512494
aF0.02146954050935402
aF0.022178810648082262
aF0.018441578502631562
aF0.02530140740438884
aF0.041463998944517813
aF0.024669715518109557
aF0.024907208005890642
aF0.02621519206653964
aF0.029878180968925999
aF0.019173423562936973
aF0.015395245242983699
aF0.016149315598864501
aF0.022217161635553508
aF0.021987984873485453
aF0.015059437247258138
aF0.01678886193112638
aF0.022291635178333415
aF0.0042424293640770314
aF0.021538590154894302
aF0.0015784922526589859
aF0.01910894981083136
aF0.0038027729499449155
aF0.0041284051923883586
aF0.006855374295136751
aF0.023211933741764054
aF0.011897711285571011
aF0.020581443267253991
aF0.01073005245883606
aF0.0019746690751383149
aF0.0025878531395505605
aF0.0018385626159386141
aF0.01427746978556043
aF0.01408425373008477
aF0.011233076570012192
aF0.021977639071720435
aF0.020961453804102217
aF0.018961121593010163
aF0.0064479091519588109
aF0.017036677289861555
aF0.0035667708836928727
aF0.0081220114793154573
aF0.015691593242611036
aF0.011283520465988718
aF0.0035014371669818247
aF0.0072701257932924843
aasS'aBeta'
p82
F2
sS'lRate'
p83
F0.40000000000000002
sS'aLearning'
p84
I00
sS'mRate'
p85
F0
sS'aErrors'
p86
(lp87
sb.