(iML1050.Classifiers.NaiveBayes
NaiveBayes
p1
(dp2
S'num_attrs'
p3
I22
sS'count_dict'
p4
(dp5
S'1'
(dp6
S'attributes'
p7
(lp8
(dp9
I0
I22
sI1
I18
sa(dp10
I0
I30
sI1
I10
sa(dp11
I0
I25
sI1
I15
sa(dp12
I0
I27
sI1
I13
sa(dp13
I0
I26
sI1
I14
sa(dp14
I0
I33
sI1
I7
sa(dp15
I0
I24
sI1
I16
sa(dp16
I0
I22
sI1
I18
sa(dp17
I0
I29
sI1
I11
sa(dp18
I0
I25
sI1
I15
sa(dp19
I0
I27
sI1
I13
sa(dp20
I0
I25
sI1
I15
sa(dp21
I0
I17
sI1
I23
sa(dp22
I0
I28
sI1
I12
sa(dp23
I0
I35
sI1
I5
sa(dp24
I0
I27
sI1
I13
sa(dp25
I0
I32
sI1
I8
sa(dp26
I0
I34
sI1
I6
sa(dp27
I0
I30
sI1
I10
sa(dp28
I0
I27
sI1
I13
sa(dp29
I0
I25
sI1
I15
sa(dp30
I0
I21
sI1
I19
sasS'numTotalOccurrences'
p31
I40
ssS'0'
(dp32
g7
(lp33
(dp34
I0
I29
sI1
I11
sa(dp35
I0
I37
sI1
I3
sa(dp36
I0
I34
sI1
I6
sa(dp37
I0
I36
sI1
I4
sa(dp38
I0
I30
sI1
I10
sa(dp39
I0
I37
sI1
I3
sa(dp40
I0
I35
sI1
I5
sa(dp41
I0
I36
sI1
I4
sa(dp42
I0
I36
sI1
I4
sa(dp43
I0
I32
sI1
I8
sa(dp44
I0
I37
sI1
I3
sa(dp45
I0
I35
sI1
I5
sa(dp46
I0
I35
sI1
I5
sa(dp47
I0
I36
sI1
I4
sa(dp48
I0
I39
sI1
I1
sa(dp49
I0
I39
sI1
I1
sa(dp50
I0
I40
sa(dp51
I0
I40
sa(dp52
I0
I35
sI1
I5
sa(dp53
I0
I35
sI1
I5
sa(dp54
I0
I36
sI1
I4
sa(dp55
I0
I33
sI1
I7
sasg31
I40
sssS'confusionMatrix'
p56
ccopy_reg
_reconstructor
p57
(cML1050.Utils.ConfusionMatrix
ConfusionMatrix
p58
c__builtin__
object
p59
NtRp60
(dp61
S'incorrect'
p62
I42
sS'predictedValues'
p63
(lp64
S'1'
aS'0'
aS'1'
aS'1'
aS'1'
aS'1'
aS'1'
aS'1'
aS'0'
aS'1'
aS'1'
aS'0'
aS'1'
aS'1'
aS'1'
aS'1'
aS'1'
aS'1'
aS'0'
aS'1'
aS'1'
aS'1'
aS'1'
aS'1'
aS'0'
aS'1'
aS'1'
aS'1'
aS'1'
aS'0'
aS'1'
aS'1'
aS'1'
aS'1'
aS'1'
aS'1'
aS'1'
aS'1'
aS'1'
aS'1'
aS'1'
aS'1'
aS'1'
aS'0'
aS'0'
aS'1'
aS'0'
aS'1'
aS'0'
aS'1'
aS'1'
aS'0'
aS'1'
aS'0'
aS'1'
aS'1'
aS'1'
aS'0'
aS'1'
aS'1'
aS'1'
aS'1'
aS'1'
aS'1'
aS'0'
aS'1'
aS'1'
aS'1'
aS'1'
aS'1'
aS'1'
aS'1'
aS'1'
aS'1'
aS'1'
aS'1'
aS'1'
aS'1'
aS'1'
aS'1'
aS'1'
aS'1'
aS'1'
aS'1'
aS'1'
aS'1'
aS'1'
aS'1'
aS'1'
aS'1'
aS'1'
aS'1'
aS'0'
aS'1'
aS'1'
aS'1'
aS'1'
aS'1'
aS'1'
aS'1'
aS'1'
aS'1'
aS'1'
aS'0'
aS'0'
aS'1'
aS'0'
aS'0'
aS'1'
aS'0'
aS'0'
aS'0'
aS'0'
aS'1'
aS'0'
aS'1'
aS'0'
aS'1'
aS'0'
aS'1'
aS'0'
aS'0'
aS'0'
aS'1'
aS'1'
aS'0'
aS'1'
aS'1'
aS'0'
aS'1'
aS'0'
aS'1'
aS'1'
aS'0'
aS'1'
aS'1'
aS'1'
aS'1'
aS'1'
aS'1'
aS'1'
aS'1'
aS'1'
aS'1'
aS'1'
aS'0'
aS'1'
aS'1'
aS'1'
aS'1'
aS'1'
aS'0'
aS'1'
aS'1'
aS'1'
aS'0'
aS'1'
aS'1'
aS'1'
aS'1'
aS'1'
aS'1'
aS'1'
aS'1'
aS'1'
aS'1'
aS'1'
aS'1'
aS'0'
aS'1'
aS'1'
aS'1'
aS'0'
aS'1'
aS'0'
aS'0'
aS'0'
aS'0'
aS'0'
aS'0'
aS'1'
aS'0'
aS'0'
aS'1'
aS'1'
aS'1'
aS'0'
asS'log'
p65
g57
(cML1050.Utils.Logger
Logger
p66
g59
NtRp67
(dp68
S'fileDebugLevel'
p69
I1
sS'debugLevel'
p70
I1
sbsg56
cNumeric
array_constructor
p71
((I2
I2
tS'l'
S'\x87\x00\x00\x00\x00\x00\x00\x00%\x00\x00\x00\x00\x00\x00\x00\x05\x00\x00\x00\x00\x00\x00\x00\n\x00\x00\x00\x00\x00\x00\x00'
I1
tRp72
sS'trueValues'
p73
(lp74
S'1'
aS'1'
aS'1'
aS'1'
aS'1'
aS'1'
aS'1'
aS'1'
aS'1'
aS'1'
aS'1'
aS'1'
aS'1'
aS'1'
aS'1'
aS'1'
aS'1'
aS'1'
aS'1'
aS'1'
aS'1'
aS'1'
aS'1'
aS'1'
aS'1'
aS'1'
aS'1'
aS'1'
aS'1'
aS'1'
aS'1'
aS'1'
aS'1'
aS'1'
aS'1'
aS'1'
aS'1'
aS'1'
aS'1'
aS'1'
aS'1'
aS'1'
aS'1'
aS'1'
aS'1'
aS'1'
aS'1'
aS'1'
aS'1'
aS'1'
aS'1'
aS'1'
aS'1'
aS'1'
aS'1'
aS'1'
aS'1'
aS'1'
aS'1'
aS'1'
aS'1'
aS'1'
aS'1'
aS'1'
aS'1'
aS'1'
aS'1'
aS'1'
aS'1'
aS'1'
aS'1'
aS'1'
aS'1'
aS'1'
aS'1'
aS'1'
aS'1'
aS'1'
aS'1'
aS'1'
aS'1'
aS'1'
aS'1'
aS'1'
aS'1'
aS'1'
aS'1'
aS'1'
aS'1'
aS'1'
aS'1'
aS'1'
aS'1'
aS'1'
aS'1'
aS'1'
aS'1'
aS'1'
aS'1'
aS'1'
aS'1'
aS'1'
aS'1'
aS'1'
aS'1'
aS'1'
aS'1'
aS'1'
aS'1'
aS'1'
aS'1'
aS'1'
aS'1'
aS'1'
aS'1'
aS'1'
aS'1'
aS'1'
aS'1'
aS'1'
aS'1'
aS'1'
aS'1'
aS'1'
aS'1'
aS'1'
aS'1'
aS'1'
aS'1'
aS'1'
aS'1'
aS'1'
aS'1'
aS'1'
aS'1'
aS'1'
aS'1'
aS'1'
aS'1'
aS'1'
aS'1'
aS'1'
aS'1'
aS'1'
aS'1'
aS'1'
aS'1'
aS'1'
aS'1'
aS'1'
aS'1'
aS'1'
aS'1'
aS'1'
aS'1'
aS'1'
aS'1'
aS'1'
aS'1'
aS'1'
aS'1'
aS'1'
aS'1'
aS'1'
aS'1'
aS'1'
aS'1'
aS'1'
aS'1'
aS'1'
aS'1'
aS'1'
aS'0'
aS'0'
aS'0'
aS'0'
aS'0'
aS'0'
aS'0'
aS'0'
aS'0'
aS'0'
aS'0'
aS'0'
aS'0'
aS'0'
aS'0'
asS'classes'
p75
(lp76
S'1'
aS'0'
asS'correct'
p77
I145
sbsS'trainingSet'
p78
g57
(cML1050.TrainingSet
TrainingSet
p79
c__builtin__
list
p80
(lp81
g57
(cML1050.Example
LabeledExample
p82
g80
(lp83
I0
aI0
aI0
aI1
aI0
aI0
aI0
aI1
aI1
aI0
aI0
aI0
aI1
aI1
aI0
aI0
aI0
aI0
aI0
aI0
aI0
aI0
atRp84
(dp85
S'label'
p86
S'1'
sbag57
(g82
g80
(lp87
I0
aI0
aI1
aI1
aI0
aI0
aI0
aI1
aI1
aI0
aI0
aI0
aI1
aI1
aI0
aI0
aI0
aI0
aI0
aI0
aI0
aI1
atRp88
(dp89
g86
S'1'
sbag57
(g82
g80
(lp90
I1
aI0
aI1
aI0
aI1
aI0
aI0
aI1
aI0
aI1
aI0
aI0
aI1
aI0
aI0
aI0
aI0
aI0
aI0
aI0
aI0
aI0
atRp91
(dp92
g86
S'1'
sbag57
(g82
g80
(lp93
I0
aI0
aI0
aI0
aI0
aI0
aI0
aI0
aI0
aI0
aI1
aI0
aI0
aI0
aI0
aI0
aI0
aI0
aI0
aI1
aI1
aI1
atRp94
(dp95
g86
S'1'
sbag57
(g82
g80
(lp96
I0
aI0
aI0
aI0
aI0
aI0
aI0
aI1
aI0
aI0
aI0
aI0
aI1
aI0
aI1
aI1
aI0
aI0
aI0
aI0
aI0
aI0
atRp97
(dp98
g86
S'1'
sbag57
(g82
g80
(lp99
I0
aI0
aI0
aI1
aI0
aI0
aI0
aI0
aI1
aI0
aI0
aI0
aI1
aI1
aI0
aI1
aI0
aI0
aI0
aI1
aI0
aI1
atRp100
(dp101
g86
S'1'
sbag57
(g82
g80
(lp102
I1
aI0
aI1
aI1
aI0
aI0
aI0
aI1
aI0
aI1
aI0
aI1
aI1
aI0
aI0
aI0
aI0
aI0
aI0
aI0
aI1
aI1
atRp103
(dp104
g86
S'1'
sbag57
(g82
g80
(lp105
I0
aI0
aI1
aI0
aI0
aI0
aI0
aI1
aI0
aI0
aI0
aI0
aI1
aI0
aI0
aI0
aI0
aI0
aI0
aI0
aI0
aI1
atRp106
(dp107
g86
S'1'
sbag57
(g82
g80
(lp108
I0
aI0
aI1
aI0
aI0
aI0
aI1
aI1
aI0
aI0
aI0
aI0
aI1
aI0
aI1
aI0
aI0
aI0
aI0
aI0
aI1
aI1
atRp109
(dp110
g86
S'1'
sbag57
(g82
g80
(lp111
I0
aI1
aI0
aI0
aI0
aI0
aI1
aI1
aI0
aI0
aI1
aI0
aI0
aI0
aI0
aI0
aI0
aI0
aI0
aI0
aI0
aI0
atRp112
(dp113
g86
S'1'
sbag57
(g82
g80
(lp114
I1
aI1
aI0
aI0
aI1
aI0
aI1
aI0
aI0
aI1
aI1
aI1
aI1
aI0
aI0
aI1
aI1
aI1
aI1
aI1
aI0
aI1
atRp115
(dp116
g86
S'1'
sbag57
(g82
g80
(lp117
I1
aI1
aI0
aI0
aI1
aI1
aI1
aI0
aI1
aI1
aI1
aI1
aI0
aI1
aI0
aI0
aI1
aI0
aI1
aI1
aI0
aI0
atRp118
(dp119
g86
S'1'
sbag57
(g82
g80
(lp120
I1
aI0
aI0
aI0
aI1
aI0
aI0
aI0
aI0
aI1
aI0
aI0
aI1
aI0
aI0
aI0
aI0
aI0
aI0
aI0
aI1
aI1
atRp121
(dp122
g86
S'1'
sbag57
(g82
g80
(lp123
I0
aI1
aI0
aI0
aI0
aI0
aI1
aI0
aI0
aI0
aI0
aI1
aI0
aI0
aI0
aI1
aI0
aI1
aI0
aI0
aI1
aI1
atRp124
(dp125
g86
S'1'
sbag57
(g82
g80
(lp126
I1
aI0
aI1
aI1
aI0
aI0
aI1
aI1
aI1
aI0
aI1
aI1
aI1
aI1
aI1
aI1
aI0
aI1
aI1
aI0
aI1
aI1
atRp127
(dp128
g86
S'1'
sbag57
(g82
g80
(lp129
I0
aI1
aI1
aI0
aI0
aI1
aI1
aI1
aI0
aI0
aI0
aI1
aI1
aI0
aI0
aI1
aI1
aI1
aI0
aI1
aI1
aI1
atRp130
(dp131
g86
S'1'
sbag57
(g82
g80
(lp132
I0
aI0
aI1
aI1
aI0
aI0
aI0
aI1
aI1
aI0
aI0
aI0
aI1
aI1
aI0
aI1
aI0
aI0
aI0
aI0
aI1
aI0
atRp133
(dp134
g86
S'1'
sbag57
(g82
g80
(lp135
I0
aI0
aI0
aI0
aI0
aI0
aI1
aI0
aI0
aI0
aI0
aI0
aI0
aI0
aI0
aI0
aI0
aI0
aI0
aI0
aI0
aI1
atRp136
(dp137
g86
S'1'
sbag57
(g82
g80
(lp138
I1
aI0
aI1
aI0
aI1
aI0
aI1
aI1
aI0
aI1
aI0
aI1
aI1
aI0
aI0
aI0
aI1
aI0
aI0
aI1
aI1
aI0
atRp139
(dp140
g86
S'1'
sbag57
(g82
g80
(lp141
I1
aI0
aI0
aI0
aI1
aI0
aI0
aI0
aI0
aI1
aI0
aI0
aI1
aI0
aI0
aI0
aI0
aI0
aI0
aI1
aI0
aI0
atRp142
(dp143
g86
S'1'
sbag57
(g82
g80
(lp144
I0
aI0
aI0
aI0
aI0
aI0
aI1
aI0
aI0
aI0
aI1
aI1
aI1
aI0
aI0
aI0
aI0
aI0
aI0
aI0
aI1
aI1
atRp145
(dp146
g86
S'1'
sbag57
(g82
g80
(lp147
I1
aI0
aI0
aI0
aI1
aI1
aI0
aI1
aI0
aI0
aI1
aI0
aI0
aI0
aI0
aI0
aI0
aI0
aI1
aI1
aI0
aI0
atRp148
(dp149
g86
S'1'
sbag57
(g82
g80
(lp150
I1
aI1
aI0
aI0
aI1
aI1
aI1
aI0
aI0
aI1
aI1
aI1
aI0
aI0
aI0
aI0
aI0
aI0
aI1
aI0
aI0
aI0
atRp151
(dp152
g86
S'1'
sbag57
(g82
g80
(lp153
I0
aI0
aI0
aI0
aI0
aI0
aI0
aI1
aI0
aI0
aI0
aI0
aI1
aI0
aI0
aI0
aI0
aI0
aI0
aI0
aI0
aI0
atRp154
(dp155
g86
S'1'
sbag57
(g82
g80
(lp156
I0
aI0
aI0
aI0
aI0
aI1
aI0
aI0
aI0
aI0
aI1
aI0
aI0
aI0
aI0
aI0
aI1
aI0
aI1
aI0
aI0
aI0
atRp157
(dp158
g86
S'1'
sbag57
(g82
g80
(lp159
I0
aI0
aI0
aI0
aI0
aI0
aI1
aI0
aI0
aI0
aI0
aI1
aI0
aI0
aI0
aI1
aI0
aI0
aI0
aI0
aI0
aI0
atRp160
(dp161
g86
S'1'
sbag57
(g82
g80
(lp162
I0
aI0
aI0
aI1
aI0
aI0
aI1
aI0
aI1
aI0
aI0
aI1
aI0
aI1
aI0
aI0
aI0
aI0
aI0
aI0
aI1
aI0
atRp163
(dp164
g86
S'1'
sbag57
(g82
g80
(lp165
I0
aI0
aI0
aI0
aI0
aI0
aI0
aI0
aI0
aI0
aI0
aI0
aI0
aI0
aI0
aI0
aI0
aI0
aI0
aI1
aI0
aI0
atRp166
(dp167
g86
S'1'
sbag57
(g82
g80
(lp168
I0
aI0
aI0
aI0
aI0
aI0
aI0
aI0
aI0
aI0
aI0
aI0
aI0
aI0
aI0
aI0
aI0
aI0
aI0
aI0
aI0
aI1
atRp169
(dp170
g86
S'1'
sbag57
(g82
g80
(lp171
I1
aI0
aI1
aI1
aI1
aI0
aI0
aI0
aI0
aI1
aI0
aI0
aI1
aI1
aI0
aI1
aI0
aI0
aI0
aI1
aI1
aI1
atRp172
(dp173
g86
S'1'
sbag57
(g82
g80
(lp174
I0
aI0
aI0
aI0
aI0
aI0
aI0
aI0
aI0
aI0
aI0
aI0
aI0
aI0
aI0
aI0
aI0
aI0
aI0
aI0
aI0
aI0
atRp175
(dp176
g86
S'1'
sbag57
(g82
g80
(lp177
I0
aI0
aI0
aI0
aI0
aI0
aI0
aI0
aI0
aI0
aI0
aI0
aI0
aI0
aI0
aI0
aI0
aI0
aI0
aI0
aI0
aI0
atRp178
(dp179
g86
S'1'
sbag57
(g82
g80
(lp180
I1
aI1
aI0
aI0
aI1
aI1
aI1
aI0
aI0
aI1
aI1
aI1
aI0
aI0
aI0
aI0
aI1
aI0
aI1
aI0
aI0
aI1
atRp181
(dp182
g86
S'1'
sbag57
(g82
g80
(lp183
I0
aI1
aI1
aI1
aI0
aI0
aI1
aI1
aI1
aI0
aI1
aI1
aI1
aI0
aI0
aI1
aI1
aI1
aI0
aI0
aI1
aI1
atRp184
(dp185
g86
S'1'
sbag57
(g82
g80
(lp186
I1
aI0
aI1
aI1
aI1
aI0
aI0
aI1
aI1
aI1
aI0
aI0
aI1
aI1
aI1
aI0
aI0
aI0
aI0
aI0
aI1
aI0
atRp187
(dp188
g86
S'1'
sbag57
(g82
g80
(lp189
I1
aI1
aI1
aI1
aI1
aI1
aI0
aI0
aI0
aI0
aI1
aI1
aI1
aI1
aI0
aI1
aI1
aI1
aI1
aI1
aI0
aI1
atRp190
(dp191
g86
S'1'
sbag57
(g82
g80
(lp192
I1
aI1
aI1
aI0
aI1
aI0
aI1
aI1
aI1
aI1
aI0
aI1
aI1
aI1
aI0
aI1
aI0
aI0
aI0
aI1
aI1
aI1
atRp193
(dp194
g86
S'1'
sbag57
(g82
g80
(lp195
I1
aI0
aI0
aI1
aI0
aI0
aI0
aI0
aI0
aI1
aI1
aI0
aI0
aI0
aI0
aI0
aI0
aI0
aI0
aI0
aI0
aI0
atRp196
(dp197
g86
S'1'
sbag57
(g82
g80
(lp198
I1
aI0
aI0
aI0
aI1
aI0
aI0
aI0
aI0
aI1
aI0
aI0
aI0
aI0
aI0
aI0
aI0
aI0
aI1
aI0
aI0
aI0
atRp199
(dp200
g86
S'1'
sbag57
(g82
g80
(lp201
I1
aI0
aI1
aI1
aI0
aI0
aI0
aI1
aI1
aI1
aI0
aI0
aI1
aI1
aI1
aI1
aI0
aI0
aI1
aI1
aI0
aI0
atRp202
(dp203
g86
S'1'
sbag57
(g82
g80
(lp204
I0
aI0
aI0
aI0
aI0
aI0
aI0
aI0
aI0
aI0
aI0
aI0
aI0
aI0
aI0
aI0
aI0
aI0
aI0
aI0
aI0
aI1
atRp205
(dp206
g86
S'0'
sbag57
(g82
g80
(lp207
I0
aI0
aI0
aI0
aI0
aI0
aI0
aI0
aI0
aI0
aI0
aI0
aI1
aI0
aI0
aI0
aI0
aI0
aI0
aI0
aI0
aI0
atRp208
(dp209
g86
S'0'
sbag57
(g82
g80
(lp210
I0
aI0
aI0
aI0
aI0
aI0
aI0
aI0
aI1
aI0
aI0
aI0
aI0
aI1
aI0
aI0
aI0
aI0
aI0
aI0
aI0
aI0
atRp211
(dp212
g86
S'0'
sbag57
(g82
g80
(lp213
I0
aI0
aI0
aI1
aI0
aI0
aI0
aI0
aI0
aI0
aI0
aI0
aI0
aI0
aI0
aI0
aI0
aI0
aI0
aI0
aI0
aI0
atRp214
(dp215
g86
S'0'
sbag57
(g82
g80
(lp216
I0
aI1
aI0
aI0
aI0
aI0
aI1
aI0
aI0
aI0
aI0
aI1
aI0
aI0
aI0
aI0
aI0
aI0
aI0
aI0
aI1
aI0
atRp217
(dp218
g86
S'0'
sbag57
(g82
g80
(lp219
I1
aI0
aI0
aI0
aI1
aI0
aI0
aI0
aI0
aI1
aI0
aI0
aI0
aI0
aI0
aI0
aI0
aI0
aI0
aI0
aI0
aI1
atRp220
(dp221
g86
S'0'
sbag57
(g82
g80
(lp222
I0
aI0
aI0
aI0
aI0
aI0
aI0
aI0
aI0
aI0
aI0
aI1
aI1
aI0
aI0
aI0
aI0
aI0
aI0
aI1
aI0
aI0
atRp223
(dp224
g86
S'0'
sbag57
(g82
g80
(lp225
I0
aI0
aI1
aI1
aI0
aI0
aI0
aI1
aI0
aI0
aI0
aI0
aI0
aI0
aI0
aI0
aI0
aI0
aI0
aI0
aI0
aI0
atRp226
(dp227
g86
S'0'
sbag57
(g82
g80
(lp228
I0
aI0
aI0
aI0
aI0
aI0
aI0
aI0
aI0
aI0
aI0
aI0
aI0
aI0
aI0
aI0
aI0
aI0
aI0
aI0
aI0
aI0
atRp229
(dp230
g86
S'0'
sbag57
(g82
g80
(lp231
I0
aI0
aI0
aI0
aI0
aI0
aI0
aI0
aI0
aI0
aI0
aI0
aI0
aI0
aI0
aI0
aI0
aI0
aI0
aI1
aI0
aI0
atRp232
(dp233
g86
S'0'
sbag57
(g82
g80
(lp234
I0
aI0
aI0
aI1
aI0
aI0
aI0
aI0
aI1
aI0
aI0
aI0
aI0
aI0
aI1
aI0
aI0
aI0
aI0
aI1
aI0
aI1
atRp235
(dp236
g86
S'0'
sbag57
(g82
g80
(lp237
I0
aI0
aI0
aI0
aI0
aI0
aI0
aI0
aI0
aI0
aI0
aI0
aI0
aI0
aI0
aI0
aI0
aI0
aI0
aI0
aI0
aI0
atRp238
(dp239
g86
S'0'
sbag57
(g82
g80
(lp240
I0
aI0
aI0
aI0
aI0
aI0
aI0
aI0
aI0
aI0
aI0
aI0
aI0
aI0
aI0
aI0
aI0
aI0
aI0
aI0
aI0
aI0
atRp241
(dp242
g86
S'0'
sbag57
(g82
g80
(lp243
I0
aI0
aI1
aI0
aI0
aI0
aI0
aI0
aI0
aI0
aI0
aI0
aI1
aI0
aI0
aI0
aI0
aI0
aI0
aI0
aI0
aI0
atRp244
(dp245
g86
S'0'
sbag57
(g82
g80
(lp246
I1
aI0
aI0
aI0
aI1
aI0
aI1
aI0
aI0
aI1
aI0
aI1
aI0
aI0
aI0
aI0
aI0
aI0
aI0
aI0
aI0
aI1
atRp247
(dp248
g86
S'0'
sbag57
(g82
g80
(lp249
I0
aI1
aI0
aI0
aI0
aI1
aI0
aI0
aI0
aI0
aI0
aI0
aI0
aI0
aI0
aI0
aI0
aI0
aI0
aI0
aI0
aI0
atRp250
(dp251
g86
S'0'
sbag57
(g82
g80
(lp252
I0
aI0
aI0
aI0
aI0
aI0
aI0
aI0
aI0
aI0
aI0
aI0
aI0
aI0
aI0
aI0
aI0
aI0
aI1
aI1
aI0
aI0
atRp253
(dp254
g86
S'0'
sbag57
(g82
g80
(lp255
I1
aI1
aI1
aI0
aI1
aI0
aI1
aI1
aI1
aI1
aI1
aI0
aI0
aI1
aI0
aI1
aI0
aI0
aI1
aI0
aI1
aI0
atRp256
(dp257
g86
S'0'
sbag57
(g82
g80
(lp258
I0
aI0
aI0
aI0
aI0
aI0
aI0
aI0
aI0
aI0
aI0
aI0
aI0
aI0
aI0
aI0
aI0
aI0
aI0
aI0
aI0
aI0
atRp259
(dp260
g86
S'0'
sbag57
(g82
g80
(lp261
I0
aI0
aI0
aI0
aI0
aI0
aI0
aI0
aI0
aI0
aI0
aI0
aI0
aI0
aI0
aI0
aI0
aI0
aI0
aI0
aI0
aI0
atRp262
(dp263
g86
S'0'
sbag57
(g82
g80
(lp264
I1
aI0
aI0
aI0
aI1
aI0
aI0
aI0
aI0
aI0
aI1
aI0
aI0
aI0
aI0
aI0
aI0
aI0
aI0
aI0
aI0
aI0
atRp265
(dp266
g86
S'0'
sbag57
(g82
g80
(lp267
I0
aI0
aI0
aI0
aI0
aI0
aI0
aI0
aI0
aI0
aI0
aI0
aI0
aI0
aI0
aI0
aI0
aI0
aI0
aI0
aI0
aI0
atRp268
(dp269
g86
S'0'
sbag57
(g82
g80
(lp270
I0
aI0
aI0
aI0
aI0
aI0
aI0
aI0
aI0
aI0
aI0
aI0
aI0
aI0
aI0
aI0
aI0
aI0
aI0
aI0
aI0
aI1
atRp271
(dp272
g86
S'0'
sbag57
(g82
g80
(lp273
I0
aI0
aI0
aI0
aI0
aI0
aI0
aI0
aI0
aI0
aI0
aI0
aI0
aI0
aI0
aI0
aI0
aI0
aI0
aI0
aI0
aI0
atRp274
(dp275
g86
S'0'
sbag57
(g82
g80
(lp276
I0
aI0
aI0
aI0
aI0
aI0
aI0
aI0
aI0
aI0
aI0
aI0
aI0
aI0
aI0
aI0
aI0
aI0
aI0
aI0
aI0
aI0
atRp277
(dp278
g86
S'0'
sbag57
(g82
g80
(lp279
I0
aI0
aI0
aI0
aI0
aI0
aI0
aI0
aI0
aI0
aI0
aI0
aI0
aI0
aI0
aI0
aI0
aI0
aI0
aI0
aI0
aI0
atRp280
(dp281
g86
S'0'
sbag57
(g82
g80
(lp282
I0
aI0
aI0
aI0
aI0
aI0
aI0
aI0
aI0
aI0
aI0
aI0
aI0
aI0
aI0
aI0
aI0
aI0
aI0
aI0
aI0
aI1
atRp283
(dp284
g86
S'0'
sbag57
(g82
g80
(lp285
I0
aI0
aI0
aI0
aI0
aI0
aI0
aI0
aI0
aI0
aI0
aI0
aI0
aI0
aI0
aI0
aI0
aI0
aI0
aI0
aI0
aI0
atRp286
(dp287
g86
S'0'
sbag57
(g82
g80
(lp288
I1
aI0
aI0
aI0
aI1
aI0
aI0
aI0
aI0
aI0
aI0
aI0
aI0
aI0
aI0
aI0
aI0
aI0
aI0
aI0
aI0
aI0
atRp289
(dp290
g86
S'0'
sbag57
(g82
g80
(lp291
I0
aI0
aI0
aI0
aI0
aI0
aI0
aI0
aI0
aI0
aI0
aI0
aI0
aI0
aI0
aI0
aI0
aI0
aI0
aI0
aI0
aI0
atRp292
(dp293
g86
S'0'
sbag57
(g82
g80
(lp294
I0
aI0
aI1
aI0
aI0
aI0
aI0
aI1
aI0
aI0
aI0
aI0
aI0
aI0
aI0
aI0
aI0
aI0
aI0
aI0
aI0
aI0
atRp295
(dp296
g86
S'0'
sbag57
(g82
g80
(lp297
I0
aI0
aI0
aI0
aI0
aI1
aI0
aI0
aI0
aI0
aI1
aI0
aI0
aI0
aI0
aI0
aI0
aI0
aI0
aI0
aI0
aI0
atRp298
(dp299
g86
S'0'
sbag57
(g82
g80
(lp300
I1
aI0
aI0
aI0
aI1
aI0
aI1
aI0
aI0
aI1
aI0
aI1
aI0
aI0
aI0
aI0
aI0
aI0
aI1
aI0
aI0
aI0
atRp301
(dp302
g86
S'0'
sbag57
(g82
g80
(lp303
I1
aI0
aI1
aI0
aI0
aI0
aI0
aI1
aI0
aI1
aI0
aI0
aI1
aI0
aI0
aI0
aI0
aI0
aI0
aI0
aI1
aI0
atRp304
(dp305
g86
S'0'
sbag57
(g82
g80
(lp306
I0
aI0
aI0
aI0
aI0
aI0
aI0
aI0
aI0
aI0
aI0
aI0
aI0
aI0
aI0
aI0
aI0
aI0
aI0
aI0
aI0
aI0
atRp307
(dp308
g86
S'0'
sbag57
(g82
g80
(lp309
I1
aI0
aI0
aI0
aI1
aI0
aI0
aI0
aI0
aI1
aI0
aI0
aI0
aI0
aI0
aI0
aI0
aI0
aI0
aI0
aI0
aI0
atRp310
(dp311
g86
S'0'
sbag57
(g82
g80
(lp312
I1
aI0
aI0
aI0
aI1
aI1
aI0
aI0
aI1
aI1
aI0
aI0
aI0
aI1
aI0
aI0
aI0
aI0
aI1
aI1
aI0
aI0
atRp313
(dp314
g86
S'0'
sbag57
(g82
g80
(lp315
I1
aI0
aI0
aI0
aI1
aI0
aI0
aI0
aI0
aI1
aI0
aI0
aI0
aI0
aI0
aI0
aI0
aI0
aI1
aI0
aI0
aI0
atRp316
(dp317
g86
S'0'
sbag57
(g82
g80
(lp318
I0
aI0
aI1
aI1
aI0
aI0
aI1
aI0
aI0
aI0
aI0
aI1
aI1
aI1
aI0
aI0
aI0
aI0
aI0
aI0
aI1
aI1
atRp319
(dp320
g86
S'0'
sbag57
(g82
g80
(lp321
I1
aI0
aI0
aI0
aI1
aI0
aI0
aI0
aI0
aI0
aI0
aI0
aI0
aI0
aI0
aI0
aI0
aI0
aI0
aI0
aI0
aI0
atRp322
(dp323
g86
S'0'
sbatRp324
sS'logger'
p325
g57
(g66
g59
NtRp326
(dp327
g69
I2
sg70
I2
sbsS'num_records'
p328
I80
sb.