(iML1050.Classifiers.NeuralNetwork
NeuralNetwork
p1
(dp2
S'aAlpha'
p3
F0.050000000000000003
sS'V'
(lp4
(lp5
F0.35319024302194613
aF0.18530962997150477
aF-0.55328104386701726
aF1.0515649954629307
aF0.24704484913148808
aF-0.22063558823131046
aF-0.080304159101511716
aasS'lastDeltaW'
p6
(lp7
(lp8
F0
aF-0.00076603850278064939
aF0
aF-0.00076603850278064939
aF-0.00076603850278064939
aF0
aF0
aF0
aF0
aF0
aF0
aF-0.00076603850278064939
aF-0.00076603850278064939
aF0
aF0
aF0
aF-0.00076603850278064939
aa(lp9
F0
aF-0.00037274942600868213
aF0
aF-0.00037274942600868213
aF-0.00037274942600868213
aF0
aF0
aF0
aF0
aF0
aF0
aF-0.00037274942600868213
aF-0.00037274942600868213
aF0
aF0
aF0
aF-0.00037274942600868213
aa(lp10
F0
aF0.00067912497662671149
aF0
aF0.00067912497662671149
aF0.00067912497662671149
aF0
aF0
aF0
aF0
aF0
aF0
aF0.00067912497662671149
aF0.00067912497662671149
aF0
aF0
aF0
aF0.00067912497662671149
aa(lp11
F0
aF-4.2335190753147605e-05
aF0
aF-4.2335190753147605e-05
aF-4.2335190753147605e-05
aF0
aF0
aF0
aF0
aF0
aF0
aF-4.2335190753147605e-05
aF-4.2335190753147605e-05
aF0
aF0
aF0
aF-4.2335190753147605e-05
aa(lp12
F0
aF-0.00051005191235247208
aF0
aF-0.00051005191235247208
aF-0.00051005191235247208
aF0
aF0
aF0
aF0
aF0
aF0
aF-0.00051005191235247208
aF-0.00051005191235247208
aF0
aF0
aF0
aF-0.00051005191235247208
aa(lp13
F0
aF0.00036432095586531838
aF0
aF0.00036432095586531838
aF0.00036432095586531838
aF0
aF0
aF0
aF0
aF0
aF0
aF0.00036432095586531838
aF0.00036432095586531838
aF0
aF0
aF0
aF0.00036432095586531838
aasS'D'
I17
sS'H'
I7
sS'K'
I1
sS'aHistory'
p14
I5
sS'search'
p15
(iML1050.Utils.NNParameterSearch
NNParameterSearch
p16
(dp17
S'rangeHiddenUnits'
p18
(lp19
I1
aI2
aI3
aI4
aI5
aI6
aI7
aI8
aI9
aI10
asS'inputs'
p20
I16
sS'logLevel'
p21
I10
sS'outputs'
p22
I1
sS'k'
I10
sS'errorsHL'
p23
(lp24
(lp25
F0.5777495864592368
aF0.56935499548475055
aF0.58241415472658564
aF0.54365752848202553
aF0.53592996606167298
aF0.57221662004598772
aF0.56596762550109436
aF0.53815586569604479
aF0.51427975965848627
aF0.89224035498256649
aa(lp26
F0.60646226212655829
aF0.58527091019223509
aF0.70352423443178425
aF0.51316522220433236
aF0.58726286084733847
aF1.3061575745735685
aF0.64664346889267965
aF0.53723475934957998
aF1.3197609205436645
aF0.60742333462482845
aa(lp27
F0.61459639719355263
aF0.59386680178218287
aF0.59892733568140266
aF0.73691679347500572
aF0.48538309530131107
aF0.52819279129987073
aF0.50078823736705225
aF0.87377629696022974
aF1.0504160239489049
aF0.65032753709931868
aa(lp28
F0.63800959961878512
aF0.61802064215629726
aF0.71764778865955903
aF0.6430692284317413
aF0.50106098886752681
aF0.51864304083472335
aF0.81706932814209954
aF1.0412427216647224
aF0.55598462092124767
aF0.65493866202918771
aa(lp29
F0.64336411942271687
aF0.63373344416883637
aF0.67250885787149628
aF0.57676394825163346
aF0.53986833846260296
aF0.50767856911502818
aF0.68319420662889119
aF0.54606194673806607
aF0.63919313558724833
aF0.6199407261003369
aa(lp30
F0.6707076558668168
aF0.61347053183476108
aF0.67740592055805904
aF0.66867290531269719
aF0.59238396078150513
aF0.47799048060861293
aF0.54761238758427511
aF0.77600574437709757
aF1.3091595796407056
aF0.75032751719334589
aa(lp31
F0.68949487221115469
aF0.66238585395391514
aF1.0070756643813668
aF0.71757400098734725
aF0.5730834798475597
aF0.5327657914313938
aF0.54058549339534501
aF0.88253755239186327
aF0.88465378773095293
aF3.825797376949339
aa(lp32
F0.65922619133636762
aF0.73127227021450436
aF0.626380941667528
aF0.64515759375935633
aF0.59187573357212464
aF1.2385215851150264
aF0.53041811622394253
aF0.55995108073713473
aF0.69553715030193741
aF0.65703060428952242
aa(lp33
F0.67971950340029808
aF0.68861671888742226
aF0.76973635279979846
aF0.70950432162556432
aF0.63567517909891336
aF0.57785172251167283
aF0.64347022892632832
aF0.55192417853647691
aF0.90509912405283188
aF0.56406460900663213
aa(lp34
F0.64963139551354476
aF0.66451715852136795
aF0.62777569727456961
aF0.64466234038315018
aF0.49362741646302916
aF0.61098194066604106
aF1.8568042254151078
aF0.74902598074490212
aF0.69281776034476916
aF2.043377993530505
aasS'epocsErrors'
p35
(lp36
(lp37
F4.5735483068098723
aF7.1503658881741972
aF2.6743646971779307
aF2.2428230639157074
aF1.6957226670919183
aF3.0017739635176008
aF1.1104804083367328
aF0.81015005936000506
aa(lp38
F0.64148277314917324
aF1.1221284489767047
aF0.51973070739311189
aF0.67860875532837528
aF0.69168585167977814
aF0.85848048763785134
aF0.73592686872208068
aF0.76369732279537916
aasS'epocsRange'
p39
(lp40
I10
aI30
aI50
aI100
aI150
aI200
aI300
aI500
asS'rangeLearningRate'
p41
(lp42
F0.025000000000000001
aF0.050000000000000003
aF0.10000000000000001
aF0.20000000000000001
aF0.29999999999999999
aF0.40000000000000002
aF0.5
aF0.59999999999999998
aF0.69999999999999996
aF0.80000000000000004
asS'errorsEpocs'
p43
NsS'regression'
p44
I01
sbsg44
I01
sS'W'
(lp45
(lp46
F-0.44096031323774582
aF-0.036485468992657227
aF-0.27027111626644462
aF0.44642259901448056
aF-0.4221617136389757
aF-0.34000830811461102
aF-0.088382117154808565
aF0.1158909187427476
aF-0.25445122897008809
aF-0.50984561973711617
aF-0.45078065754040259
aF-0.46962358219387451
aF-0.31151784449890618
aF-0.53504126840295307
aF-0.32736116287167327
aF0.10851211592605212
aF-1.0871612037714506
aa(lp47
F-0.3856423716982989
aF-0.17259245692156386
aF-0.36437594596828105
aF0.3524225864499802
aF-0.39506693484804978
aF-0.32807438796452859
aF-0.12908888985197023
aF0.012921909346516691
aF-0.32340690220323542
aF-0.30447620645385104
aF-0.48792609844720569
aF-0.37203210009502724
aF-0.34755057888534185
aF-0.37717025421934236
aF-0.35590896936665506
aF0.017906823083204852
aF-1.0511544839897671
aa(lp48
F0.10064431263574718
aF-0.50797185141247558
aF-0.66813588016419789
aF0.46763741375969847
aF-0.42683939928450104
aF-0.52458648906810212
aF-0.20793410060841194
aF-0.33761584511652565
aF-0.52870374353412719
aF0.26604114872767703
aF0.069721369288523433
aF-0.49466398696193692
aF-0.58063296172231371
aF0.042873250800494145
aF-0.04364873697753395
aF-0.17607610238994345
aF-1.0274402434031935
aa(lp49
F0.6167957801114895
aF-1.3070846667522587
aF-2.6324797194919212
aF5.8969058365565825
aF1.3346635335236088
aF-0.9425652393222379
aF1.4169969875048807
aF1.0961494123476305
aF-1.7490466008184438
aF2.0815189549982929
aF-1.8002461637366165
aF0.56481452407926447
aF-0.44284818038923446
aF0.72384018520697402
aF-1.4335446156422136
aF-0.28636793192717958
aF0.10730214011483492
aa(lp50
F-0.41796087003314503
aF-0.13522917002644363
aF-0.35201858902604732
aF0.3939436783713719
aF-0.41333847161876008
aF-0.33121017531820246
aF-0.10025280889028672
aF0.057362217785026107
aF-0.30799980122934217
aF-0.37126381731185543
aF-0.5061640009726357
aF-0.40101208483337436
aF-0.335359846101214
aF-0.44939065707064879
aF-0.341691106869351
aF0.050471514256217383
aF-1.0576458270228806
aa(lp51
F-0.13522853312495214
aF-0.36703745142367256
aF-0.54579200767331193
aF0.37134313631400434
aF-0.39605973524158228
aF-0.394405142033114
aF-0.23773600372924111
aF-0.20886842481957707
aF-0.39993340926701537
aF0.033594250143927341
aF-0.24369909494496622
aF-0.35818298020305683
aF-0.45623114366243162
aF-0.10687383409316112
aF-0.24352979931550003
aF-0.12179052940027579
aF-1.0018177207042132
aasS'aBeta'
p52
F2
sS'lRate'
p53
F0.40000000000000002
sS'aLearning'
p54
I00
sS'mRate'
p55
F0
sS'aErrors'
p56
(lp57
sb.